
03_Timer3.elf:     file format elf32-littlearm

Sections:
Idx Name          Size      VMA       LMA       File off  Algn
  0 .isr_vector   000000c0  08000000  08000000  00010000  2**0
                  CONTENTS, ALLOC, LOAD, READONLY, DATA
  1 .text         00001040  080000c0  080000c0  000100c0  2**2
                  CONTENTS, ALLOC, LOAD, READONLY, CODE
  2 .rodata       00000030  08001100  08001100  00011100  2**0
                  CONTENTS, ALLOC, LOAD, READONLY, DATA
  3 .init_array   00000004  08001130  08001130  00011130  2**2
                  CONTENTS, ALLOC, LOAD, DATA
  4 .fini_array   00000004  08001134  08001134  00011134  2**2
                  CONTENTS, ALLOC, LOAD, DATA
  5 .data         00000004  20000000  08001138  00020000  2**2
                  CONTENTS, ALLOC, LOAD, DATA
  6 .bss          00000060  20000004  0800113c  00020004  2**2
                  ALLOC
  7 ._user_heap_stack 00000600  20000064  0800113c  00020064  2**0
                  ALLOC
  8 .ARM.attributes 00000028  00000000  00000000  00020004  2**0
                  CONTENTS, READONLY
  9 .debug_info   0000d197  00000000  00000000  0002002c  2**0
                  CONTENTS, READONLY, DEBUGGING
 10 .debug_abbrev 00001af7  00000000  00000000  0002d1c3  2**0
                  CONTENTS, READONLY, DEBUGGING
 11 .debug_loc    00005402  00000000  00000000  0002ecba  2**0
                  CONTENTS, READONLY, DEBUGGING
 12 .debug_aranges 00000650  00000000  00000000  000340c0  2**3
                  CONTENTS, READONLY, DEBUGGING
 13 .debug_ranges 00000950  00000000  00000000  00034710  2**3
                  CONTENTS, READONLY, DEBUGGING
 14 .debug_line   0000395b  00000000  00000000  00035060  2**0
                  CONTENTS, READONLY, DEBUGGING
 15 .debug_str    000027d4  00000000  00000000  000389bb  2**0
                  CONTENTS, READONLY, DEBUGGING
 16 .comment      0000007c  00000000  00000000  0003b18f  2**0
                  CONTENTS, READONLY
 17 .debug_frame  00001340  00000000  00000000  0003b20c  2**2
                  CONTENTS, READONLY, DEBUGGING

Disassembly of section .text:

080000c0 <__do_global_dtors_aux>:
 80000c0:	b510      	push	{r4, lr}
 80000c2:	4c06      	ldr	r4, [pc, #24]	; (80000dc <__do_global_dtors_aux+0x1c>)
 80000c4:	7823      	ldrb	r3, [r4, #0]
 80000c6:	2b00      	cmp	r3, #0
 80000c8:	d107      	bne.n	80000da <__do_global_dtors_aux+0x1a>
 80000ca:	4b05      	ldr	r3, [pc, #20]	; (80000e0 <__do_global_dtors_aux+0x20>)
 80000cc:	2b00      	cmp	r3, #0
 80000ce:	d002      	beq.n	80000d6 <__do_global_dtors_aux+0x16>
 80000d0:	4804      	ldr	r0, [pc, #16]	; (80000e4 <__do_global_dtors_aux+0x24>)
 80000d2:	e000      	b.n	80000d6 <__do_global_dtors_aux+0x16>
 80000d4:	bf00      	nop
 80000d6:	2301      	movs	r3, #1
 80000d8:	7023      	strb	r3, [r4, #0]
 80000da:	bd10      	pop	{r4, pc}
 80000dc:	20000004 	.word	0x20000004
 80000e0:	00000000 	.word	0x00000000
 80000e4:	080010e8 	.word	0x080010e8

080000e8 <frame_dummy>:
 80000e8:	4b04      	ldr	r3, [pc, #16]	; (80000fc <frame_dummy+0x14>)
 80000ea:	b510      	push	{r4, lr}
 80000ec:	2b00      	cmp	r3, #0
 80000ee:	d003      	beq.n	80000f8 <frame_dummy+0x10>
 80000f0:	4903      	ldr	r1, [pc, #12]	; (8000100 <frame_dummy+0x18>)
 80000f2:	4804      	ldr	r0, [pc, #16]	; (8000104 <frame_dummy+0x1c>)
 80000f4:	e000      	b.n	80000f8 <frame_dummy+0x10>
 80000f6:	bf00      	nop
 80000f8:	bd10      	pop	{r4, pc}
 80000fa:	46c0      	nop			; (mov r8, r8)
 80000fc:	00000000 	.word	0x00000000
 8000100:	20000008 	.word	0x20000008
 8000104:	080010e8 	.word	0x080010e8

08000108 <__udivsi3>:
 8000108:	2200      	movs	r2, #0
 800010a:	0843      	lsrs	r3, r0, #1
 800010c:	428b      	cmp	r3, r1
 800010e:	d374      	bcc.n	80001fa <__udivsi3+0xf2>
 8000110:	0903      	lsrs	r3, r0, #4
 8000112:	428b      	cmp	r3, r1
 8000114:	d35f      	bcc.n	80001d6 <__udivsi3+0xce>
 8000116:	0a03      	lsrs	r3, r0, #8
 8000118:	428b      	cmp	r3, r1
 800011a:	d344      	bcc.n	80001a6 <__udivsi3+0x9e>
 800011c:	0b03      	lsrs	r3, r0, #12
 800011e:	428b      	cmp	r3, r1
 8000120:	d328      	bcc.n	8000174 <__udivsi3+0x6c>
 8000122:	0c03      	lsrs	r3, r0, #16
 8000124:	428b      	cmp	r3, r1
 8000126:	d30d      	bcc.n	8000144 <__udivsi3+0x3c>
 8000128:	22ff      	movs	r2, #255	; 0xff
 800012a:	0209      	lsls	r1, r1, #8
 800012c:	ba12      	rev	r2, r2
 800012e:	0c03      	lsrs	r3, r0, #16
 8000130:	428b      	cmp	r3, r1
 8000132:	d302      	bcc.n	800013a <__udivsi3+0x32>
 8000134:	1212      	asrs	r2, r2, #8
 8000136:	0209      	lsls	r1, r1, #8
 8000138:	d065      	beq.n	8000206 <__udivsi3+0xfe>
 800013a:	0b03      	lsrs	r3, r0, #12
 800013c:	428b      	cmp	r3, r1
 800013e:	d319      	bcc.n	8000174 <__udivsi3+0x6c>
 8000140:	e000      	b.n	8000144 <__udivsi3+0x3c>
 8000142:	0a09      	lsrs	r1, r1, #8
 8000144:	0bc3      	lsrs	r3, r0, #15
 8000146:	428b      	cmp	r3, r1
 8000148:	d301      	bcc.n	800014e <__udivsi3+0x46>
 800014a:	03cb      	lsls	r3, r1, #15
 800014c:	1ac0      	subs	r0, r0, r3
 800014e:	4152      	adcs	r2, r2
 8000150:	0b83      	lsrs	r3, r0, #14
 8000152:	428b      	cmp	r3, r1
 8000154:	d301      	bcc.n	800015a <__udivsi3+0x52>
 8000156:	038b      	lsls	r3, r1, #14
 8000158:	1ac0      	subs	r0, r0, r3
 800015a:	4152      	adcs	r2, r2
 800015c:	0b43      	lsrs	r3, r0, #13
 800015e:	428b      	cmp	r3, r1
 8000160:	d301      	bcc.n	8000166 <__udivsi3+0x5e>
 8000162:	034b      	lsls	r3, r1, #13
 8000164:	1ac0      	subs	r0, r0, r3
 8000166:	4152      	adcs	r2, r2
 8000168:	0b03      	lsrs	r3, r0, #12
 800016a:	428b      	cmp	r3, r1
 800016c:	d301      	bcc.n	8000172 <__udivsi3+0x6a>
 800016e:	030b      	lsls	r3, r1, #12
 8000170:	1ac0      	subs	r0, r0, r3
 8000172:	4152      	adcs	r2, r2
 8000174:	0ac3      	lsrs	r3, r0, #11
 8000176:	428b      	cmp	r3, r1
 8000178:	d301      	bcc.n	800017e <__udivsi3+0x76>
 800017a:	02cb      	lsls	r3, r1, #11
 800017c:	1ac0      	subs	r0, r0, r3
 800017e:	4152      	adcs	r2, r2
 8000180:	0a83      	lsrs	r3, r0, #10
 8000182:	428b      	cmp	r3, r1
 8000184:	d301      	bcc.n	800018a <__udivsi3+0x82>
 8000186:	028b      	lsls	r3, r1, #10
 8000188:	1ac0      	subs	r0, r0, r3
 800018a:	4152      	adcs	r2, r2
 800018c:	0a43      	lsrs	r3, r0, #9
 800018e:	428b      	cmp	r3, r1
 8000190:	d301      	bcc.n	8000196 <__udivsi3+0x8e>
 8000192:	024b      	lsls	r3, r1, #9
 8000194:	1ac0      	subs	r0, r0, r3
 8000196:	4152      	adcs	r2, r2
 8000198:	0a03      	lsrs	r3, r0, #8
 800019a:	428b      	cmp	r3, r1
 800019c:	d301      	bcc.n	80001a2 <__udivsi3+0x9a>
 800019e:	020b      	lsls	r3, r1, #8
 80001a0:	1ac0      	subs	r0, r0, r3
 80001a2:	4152      	adcs	r2, r2
 80001a4:	d2cd      	bcs.n	8000142 <__udivsi3+0x3a>
 80001a6:	09c3      	lsrs	r3, r0, #7
 80001a8:	428b      	cmp	r3, r1
 80001aa:	d301      	bcc.n	80001b0 <__udivsi3+0xa8>
 80001ac:	01cb      	lsls	r3, r1, #7
 80001ae:	1ac0      	subs	r0, r0, r3
 80001b0:	4152      	adcs	r2, r2
 80001b2:	0983      	lsrs	r3, r0, #6
 80001b4:	428b      	cmp	r3, r1
 80001b6:	d301      	bcc.n	80001bc <__udivsi3+0xb4>
 80001b8:	018b      	lsls	r3, r1, #6
 80001ba:	1ac0      	subs	r0, r0, r3
 80001bc:	4152      	adcs	r2, r2
 80001be:	0943      	lsrs	r3, r0, #5
 80001c0:	428b      	cmp	r3, r1
 80001c2:	d301      	bcc.n	80001c8 <__udivsi3+0xc0>
 80001c4:	014b      	lsls	r3, r1, #5
 80001c6:	1ac0      	subs	r0, r0, r3
 80001c8:	4152      	adcs	r2, r2
 80001ca:	0903      	lsrs	r3, r0, #4
 80001cc:	428b      	cmp	r3, r1
 80001ce:	d301      	bcc.n	80001d4 <__udivsi3+0xcc>
 80001d0:	010b      	lsls	r3, r1, #4
 80001d2:	1ac0      	subs	r0, r0, r3
 80001d4:	4152      	adcs	r2, r2
 80001d6:	08c3      	lsrs	r3, r0, #3
 80001d8:	428b      	cmp	r3, r1
 80001da:	d301      	bcc.n	80001e0 <__udivsi3+0xd8>
 80001dc:	00cb      	lsls	r3, r1, #3
 80001de:	1ac0      	subs	r0, r0, r3
 80001e0:	4152      	adcs	r2, r2
 80001e2:	0883      	lsrs	r3, r0, #2
 80001e4:	428b      	cmp	r3, r1
 80001e6:	d301      	bcc.n	80001ec <__udivsi3+0xe4>
 80001e8:	008b      	lsls	r3, r1, #2
 80001ea:	1ac0      	subs	r0, r0, r3
 80001ec:	4152      	adcs	r2, r2
 80001ee:	0843      	lsrs	r3, r0, #1
 80001f0:	428b      	cmp	r3, r1
 80001f2:	d301      	bcc.n	80001f8 <__udivsi3+0xf0>
 80001f4:	004b      	lsls	r3, r1, #1
 80001f6:	1ac0      	subs	r0, r0, r3
 80001f8:	4152      	adcs	r2, r2
 80001fa:	1a41      	subs	r1, r0, r1
 80001fc:	d200      	bcs.n	8000200 <__udivsi3+0xf8>
 80001fe:	4601      	mov	r1, r0
 8000200:	4152      	adcs	r2, r2
 8000202:	4610      	mov	r0, r2
 8000204:	4770      	bx	lr
 8000206:	e7ff      	b.n	8000208 <__udivsi3+0x100>
 8000208:	b501      	push	{r0, lr}
 800020a:	2000      	movs	r0, #0
 800020c:	f000 f806 	bl	800021c <__aeabi_idiv0>
 8000210:	bd02      	pop	{r1, pc}
 8000212:	46c0      	nop			; (mov r8, r8)

08000214 <__aeabi_uidivmod>:
 8000214:	2900      	cmp	r1, #0
 8000216:	d0f7      	beq.n	8000208 <__udivsi3+0x100>
 8000218:	e776      	b.n	8000108 <__udivsi3>
 800021a:	4770      	bx	lr

0800021c <__aeabi_idiv0>:
 800021c:	4770      	bx	lr
 800021e:	46c0      	nop			; (mov r8, r8)

08000220 <HAL_InitTick>:
  *       implementation  in user file.
  * @param TickPriority: Tick interrupt priority.
  * @retval HAL status
  */
__weak HAL_StatusTypeDef HAL_InitTick(uint32_t TickPriority)
{
 8000220:	b510      	push	{r4, lr}
 8000222:	0004      	movs	r4, r0
  /*Configure the SysTick to have interrupt in 1ms time basis*/
  HAL_SYSTICK_Config(HAL_RCC_GetHCLKFreq()/1000U);
 8000224:	f000 fbf8 	bl	8000a18 <HAL_RCC_GetHCLKFreq>
 8000228:	21fa      	movs	r1, #250	; 0xfa
 800022a:	0089      	lsls	r1, r1, #2
 800022c:	f7ff ff6c 	bl	8000108 <__udivsi3>
 8000230:	f000 f860 	bl	80002f4 <HAL_SYSTICK_Config>

  /*Configure the SysTick IRQ priority */
  HAL_NVIC_SetPriority(SysTick_IRQn, TickPriority ,0U);
 8000234:	2001      	movs	r0, #1
 8000236:	2200      	movs	r2, #0
 8000238:	0021      	movs	r1, r4
 800023a:	4240      	negs	r0, r0
 800023c:	f000 f820 	bl	8000280 <HAL_NVIC_SetPriority>

   /* Return function status */
  return HAL_OK;
}
 8000240:	2000      	movs	r0, #0
 8000242:	bd10      	pop	{r4, pc}

08000244 <HAL_Init>:
  __HAL_FLASH_PREFETCH_BUFFER_ENABLE();
 8000244:	2310      	movs	r3, #16
 8000246:	4a06      	ldr	r2, [pc, #24]	; (8000260 <HAL_Init+0x1c>)
{
 8000248:	b510      	push	{r4, lr}
  __HAL_FLASH_PREFETCH_BUFFER_ENABLE();
 800024a:	6811      	ldr	r1, [r2, #0]
  HAL_InitTick(TICK_INT_PRIORITY);
 800024c:	2000      	movs	r0, #0
  __HAL_FLASH_PREFETCH_BUFFER_ENABLE();
 800024e:	430b      	orrs	r3, r1
 8000250:	6013      	str	r3, [r2, #0]
  HAL_InitTick(TICK_INT_PRIORITY);
 8000252:	f7ff ffe5 	bl	8000220 <HAL_InitTick>
  HAL_MspInit();
 8000256:	f000 fe73 	bl	8000f40 <HAL_MspInit>
}
 800025a:	2000      	movs	r0, #0
 800025c:	bd10      	pop	{r4, pc}
 800025e:	46c0      	nop			; (mov r8, r8)
 8000260:	40022000 	.word	0x40022000

08000264 <HAL_IncTick>:
  *       implementations in user file.
  * @retval None
  */
__weak void HAL_IncTick(void)
{
  uwTick++;
 8000264:	4a02      	ldr	r2, [pc, #8]	; (8000270 <HAL_IncTick+0xc>)
 8000266:	6813      	ldr	r3, [r2, #0]
 8000268:	3301      	adds	r3, #1
 800026a:	6013      	str	r3, [r2, #0]
}
 800026c:	4770      	bx	lr
 800026e:	46c0      	nop			; (mov r8, r8)
 8000270:	20000020 	.word	0x20000020

08000274 <HAL_GetTick>:
  *       implementations in user file.
  * @retval tick value
  */
__weak uint32_t HAL_GetTick(void)
{
  return uwTick;
 8000274:	4b01      	ldr	r3, [pc, #4]	; (800027c <HAL_GetTick+0x8>)
 8000276:	6818      	ldr	r0, [r3, #0]
}
 8000278:	4770      	bx	lr
 800027a:	46c0      	nop			; (mov r8, r8)
 800027c:	20000020 	.word	0x20000020

08000280 <HAL_NVIC_SetPriority>:
  *         with stm32f0xx devices, this parameter is a dummy value and it is ignored, because 
  *         no subpriority supported in Cortex M0 based products.   
  * @retval None
  */
void HAL_NVIC_SetPriority(IRQn_Type IRQn, uint32_t PreemptPriority, uint32_t SubPriority)
{ 
 8000280:	b570      	push	{r4, r5, r6, lr}
 8000282:	0189      	lsls	r1, r1, #6
  \param [in]      IRQn  Interrupt number.
  \param [in]  priority  Priority to set.
 */
__STATIC_INLINE void NVIC_SetPriority(IRQn_Type IRQn, uint32_t priority)
{
  if ((int32_t)(IRQn) < 0)
 8000284:	2800      	cmp	r0, #0
 8000286:	da14      	bge.n	80002b2 <HAL_NVIC_SetPriority+0x32>
  {
    SCB->SHP[_SHP_IDX(IRQn)] = ((uint32_t)(SCB->SHP[_SHP_IDX(IRQn)] & ~(0xFFUL << _BIT_SHIFT(IRQn))) |
 8000288:	230f      	movs	r3, #15
 800028a:	b2c0      	uxtb	r0, r0
 800028c:	4003      	ands	r3, r0
 800028e:	3b08      	subs	r3, #8
 8000290:	4a11      	ldr	r2, [pc, #68]	; (80002d8 <HAL_NVIC_SetPriority+0x58>)
 8000292:	089b      	lsrs	r3, r3, #2
 8000294:	009b      	lsls	r3, r3, #2
 8000296:	189b      	adds	r3, r3, r2
 8000298:	2203      	movs	r2, #3
 800029a:	4010      	ands	r0, r2
 800029c:	4090      	lsls	r0, r2
 800029e:	32fc      	adds	r2, #252	; 0xfc
 80002a0:	0015      	movs	r5, r2
       (((priority << (8U - __NVIC_PRIO_BITS)) & (uint32_t)0xFFUL) << _BIT_SHIFT(IRQn)));
 80002a2:	4011      	ands	r1, r2
    SCB->SHP[_SHP_IDX(IRQn)] = ((uint32_t)(SCB->SHP[_SHP_IDX(IRQn)] & ~(0xFFUL << _BIT_SHIFT(IRQn))) |
 80002a4:	4085      	lsls	r5, r0
       (((priority << (8U - __NVIC_PRIO_BITS)) & (uint32_t)0xFFUL) << _BIT_SHIFT(IRQn)));
 80002a6:	4081      	lsls	r1, r0
    SCB->SHP[_SHP_IDX(IRQn)] = ((uint32_t)(SCB->SHP[_SHP_IDX(IRQn)] & ~(0xFFUL << _BIT_SHIFT(IRQn))) |
 80002a8:	69dc      	ldr	r4, [r3, #28]
 80002aa:	43ac      	bics	r4, r5
 80002ac:	4321      	orrs	r1, r4
 80002ae:	61d9      	str	r1, [r3, #28]
  /* Check the parameters */
  assert_param(IS_NVIC_PREEMPTION_PRIORITY(PreemptPriority));
  NVIC_SetPriority(IRQn,PreemptPriority);
}
 80002b0:	bd70      	pop	{r4, r5, r6, pc}
  }
  else
  {
    NVIC->IP[_IP_IDX(IRQn)]  = ((uint32_t)(NVIC->IP[_IP_IDX(IRQn)]  & ~(0xFFUL << _BIT_SHIFT(IRQn))) |
 80002b2:	2503      	movs	r5, #3
 80002b4:	0883      	lsrs	r3, r0, #2
 80002b6:	4028      	ands	r0, r5
 80002b8:	40a8      	lsls	r0, r5
 80002ba:	35fc      	adds	r5, #252	; 0xfc
 80002bc:	002e      	movs	r6, r5
 80002be:	4a07      	ldr	r2, [pc, #28]	; (80002dc <HAL_NVIC_SetPriority+0x5c>)
 80002c0:	009b      	lsls	r3, r3, #2
 80002c2:	189b      	adds	r3, r3, r2
 80002c4:	22c0      	movs	r2, #192	; 0xc0
 80002c6:	4086      	lsls	r6, r0
       (((priority << (8U - __NVIC_PRIO_BITS)) & (uint32_t)0xFFUL) << _BIT_SHIFT(IRQn)));
 80002c8:	4029      	ands	r1, r5
 80002ca:	4081      	lsls	r1, r0
    NVIC->IP[_IP_IDX(IRQn)]  = ((uint32_t)(NVIC->IP[_IP_IDX(IRQn)]  & ~(0xFFUL << _BIT_SHIFT(IRQn))) |
 80002cc:	0092      	lsls	r2, r2, #2
 80002ce:	589c      	ldr	r4, [r3, r2]
 80002d0:	43b4      	bics	r4, r6
 80002d2:	4321      	orrs	r1, r4
 80002d4:	5099      	str	r1, [r3, r2]
 80002d6:	e7eb      	b.n	80002b0 <HAL_NVIC_SetPriority+0x30>
 80002d8:	e000ed00 	.word	0xe000ed00
 80002dc:	e000e100 	.word	0xe000e100

080002e0 <HAL_NVIC_EnableIRQ>:
  NVIC->ISER[0U] = (uint32_t)(1UL << (((uint32_t)(int32_t)IRQn) & 0x1FUL));
 80002e0:	231f      	movs	r3, #31
 80002e2:	4018      	ands	r0, r3
 80002e4:	3b1e      	subs	r3, #30
 80002e6:	4083      	lsls	r3, r0
 80002e8:	4a01      	ldr	r2, [pc, #4]	; (80002f0 <HAL_NVIC_EnableIRQ+0x10>)
 80002ea:	6013      	str	r3, [r2, #0]
  /* Check the parameters */
  assert_param(IS_NVIC_DEVICE_IRQ(IRQn));
  
  /* Enable interrupt */
  NVIC_EnableIRQ(IRQn);
}
 80002ec:	4770      	bx	lr
 80002ee:	46c0      	nop			; (mov r8, r8)
 80002f0:	e000e100 	.word	0xe000e100

080002f4 <HAL_SYSTICK_Config>:
           function <b>SysTick_Config</b> is not included. In this case, the file <b><i>device</i>.h</b>
           must contain a vendor-specific implementation of this function.
 */
__STATIC_INLINE uint32_t SysTick_Config(uint32_t ticks)
{
  if ((ticks - 1UL) > SysTick_LOAD_RELOAD_Msk)
 80002f4:	4a09      	ldr	r2, [pc, #36]	; (800031c <HAL_SYSTICK_Config+0x28>)
 80002f6:	1e43      	subs	r3, r0, #1
  {
    return (1UL);                                                   /* Reload value impossible */
 80002f8:	2001      	movs	r0, #1
  if ((ticks - 1UL) > SysTick_LOAD_RELOAD_Msk)
 80002fa:	4293      	cmp	r3, r2
 80002fc:	d80d      	bhi.n	800031a <HAL_SYSTICK_Config+0x26>
    SCB->SHP[_SHP_IDX(IRQn)] = ((uint32_t)(SCB->SHP[_SHP_IDX(IRQn)] & ~(0xFFUL << _BIT_SHIFT(IRQn))) |
 80002fe:	21c0      	movs	r1, #192	; 0xc0
  }

  SysTick->LOAD  = (uint32_t)(ticks - 1UL);                         /* set reload register */
 8000300:	4a07      	ldr	r2, [pc, #28]	; (8000320 <HAL_SYSTICK_Config+0x2c>)
    SCB->SHP[_SHP_IDX(IRQn)] = ((uint32_t)(SCB->SHP[_SHP_IDX(IRQn)] & ~(0xFFUL << _BIT_SHIFT(IRQn))) |
 8000302:	4808      	ldr	r0, [pc, #32]	; (8000324 <HAL_SYSTICK_Config+0x30>)
  SysTick->LOAD  = (uint32_t)(ticks - 1UL);                         /* set reload register */
 8000304:	6053      	str	r3, [r2, #4]
    SCB->SHP[_SHP_IDX(IRQn)] = ((uint32_t)(SCB->SHP[_SHP_IDX(IRQn)] & ~(0xFFUL << _BIT_SHIFT(IRQn))) |
 8000306:	6a03      	ldr	r3, [r0, #32]
 8000308:	0609      	lsls	r1, r1, #24
 800030a:	021b      	lsls	r3, r3, #8
 800030c:	0a1b      	lsrs	r3, r3, #8
 800030e:	430b      	orrs	r3, r1
 8000310:	6203      	str	r3, [r0, #32]
  NVIC_SetPriority (SysTick_IRQn, (1UL << __NVIC_PRIO_BITS) - 1UL); /* set Priority for Systick Interrupt */
  SysTick->VAL   = 0UL;                                             /* Load the SysTick Counter Value */
 8000312:	2000      	movs	r0, #0
  SysTick->CTRL  = SysTick_CTRL_CLKSOURCE_Msk |
 8000314:	2307      	movs	r3, #7
  SysTick->VAL   = 0UL;                                             /* Load the SysTick Counter Value */
 8000316:	6090      	str	r0, [r2, #8]
  SysTick->CTRL  = SysTick_CTRL_CLKSOURCE_Msk |
 8000318:	6013      	str	r3, [r2, #0]
  *                  - 1  Function failed.
  */
uint32_t HAL_SYSTICK_Config(uint32_t TicksNumb)
{
   return SysTick_Config(TicksNumb);
}
 800031a:	4770      	bx	lr
 800031c:	00ffffff 	.word	0x00ffffff
 8000320:	e000e010 	.word	0xe000e010
 8000324:	e000ed00 	.word	0xe000ed00

08000328 <HAL_SYSTICK_CLKSourceConfig>:
  *             @arg SYSTICK_CLKSOURCE_HCLK_DIV8: AHB clock divided by 8 selected as SysTick clock source.
  *             @arg SYSTICK_CLKSOURCE_HCLK: AHB clock selected as SysTick clock source.
  * @retval None
  */
void HAL_SYSTICK_CLKSourceConfig(uint32_t CLKSource)
{
 8000328:	4b05      	ldr	r3, [pc, #20]	; (8000340 <HAL_SYSTICK_CLKSourceConfig+0x18>)
  /* Check the parameters */
  assert_param(IS_SYSTICK_CLK_SOURCE(CLKSource));
  if (CLKSource == SYSTICK_CLKSOURCE_HCLK)
  {
    SysTick->CTRL |= SYSTICK_CLKSOURCE_HCLK;
 800032a:	681a      	ldr	r2, [r3, #0]
  if (CLKSource == SYSTICK_CLKSOURCE_HCLK)
 800032c:	2804      	cmp	r0, #4
 800032e:	d102      	bne.n	8000336 <HAL_SYSTICK_CLKSourceConfig+0xe>
    SysTick->CTRL |= SYSTICK_CLKSOURCE_HCLK;
 8000330:	4310      	orrs	r0, r2
 8000332:	6018      	str	r0, [r3, #0]
  }
  else
  {
    SysTick->CTRL &= ~SYSTICK_CLKSOURCE_HCLK;
  }
}
 8000334:	4770      	bx	lr
    SysTick->CTRL &= ~SYSTICK_CLKSOURCE_HCLK;
 8000336:	2104      	movs	r1, #4
 8000338:	438a      	bics	r2, r1
 800033a:	601a      	str	r2, [r3, #0]
}
 800033c:	e7fa      	b.n	8000334 <HAL_SYSTICK_CLKSourceConfig+0xc>
 800033e:	46c0      	nop			; (mov r8, r8)
 8000340:	e000e010 	.word	0xe000e010

08000344 <HAL_SYSTICK_Callback>:
__weak void HAL_SYSTICK_Callback(void)
{
  /* NOTE : This function Should not be modified, when the callback is needed,
            the HAL_SYSTICK_Callback could be implemented in the user file
   */
}
 8000344:	4770      	bx	lr

08000346 <HAL_SYSTICK_IRQHandler>:
{
 8000346:	b510      	push	{r4, lr}
  HAL_SYSTICK_Callback();
 8000348:	f7ff fffc 	bl	8000344 <HAL_SYSTICK_Callback>
}
 800034c:	bd10      	pop	{r4, pc}
	...

08000350 <HAL_GPIO_Init>:
  * @param  GPIO_Init: pointer to a GPIO_InitTypeDef structure that contains
  *         the configuration information for the specified GPIO peripheral.
  * @retval None
  */
void HAL_GPIO_Init(GPIO_TypeDef  *GPIOx, GPIO_InitTypeDef *GPIO_Init)
{ 
 8000350:	b5f0      	push	{r4, r5, r6, r7, lr}
  assert_param(IS_GPIO_PIN(GPIO_Init->Pin));
  assert_param(IS_GPIO_MODE(GPIO_Init->Mode));
  assert_param(IS_GPIO_PULL(GPIO_Init->Pull)); 

  /* Configure the port pins */
  while (((GPIO_Init->Pin) >> position) != RESET)
 8000352:	680b      	ldr	r3, [r1, #0]
{ 
 8000354:	b087      	sub	sp, #28
  while (((GPIO_Init->Pin) >> position) != RESET)
 8000356:	9302      	str	r3, [sp, #8]
  uint32_t position = 0x00U;
 8000358:	2300      	movs	r3, #0
{ 
 800035a:	9101      	str	r1, [sp, #4]
  while (((GPIO_Init->Pin) >> position) != RESET)
 800035c:	9a02      	ldr	r2, [sp, #8]
 800035e:	40da      	lsrs	r2, r3
 8000360:	d101      	bne.n	8000366 <HAL_GPIO_Init+0x16>
      }
    }
    
    position++;
  } 
}
 8000362:	b007      	add	sp, #28
 8000364:	bdf0      	pop	{r4, r5, r6, r7, pc}
    iocurrent = (GPIO_Init->Pin) & (1U << position);
 8000366:	2201      	movs	r2, #1
 8000368:	409a      	lsls	r2, r3
 800036a:	9203      	str	r2, [sp, #12]
 800036c:	9903      	ldr	r1, [sp, #12]
 800036e:	9a02      	ldr	r2, [sp, #8]
 8000370:	400a      	ands	r2, r1
 8000372:	9200      	str	r2, [sp, #0]
    if(iocurrent)
 8000374:	d100      	bne.n	8000378 <HAL_GPIO_Init+0x28>
 8000376:	e08c      	b.n	8000492 <HAL_GPIO_Init+0x142>
      if((GPIO_Init->Mode == GPIO_MODE_AF_PP) || (GPIO_Init->Mode == GPIO_MODE_AF_OD)) 
 8000378:	9a01      	ldr	r2, [sp, #4]
 800037a:	2110      	movs	r1, #16
 800037c:	6852      	ldr	r2, [r2, #4]
 800037e:	0016      	movs	r6, r2
 8000380:	438e      	bics	r6, r1
 8000382:	2e02      	cmp	r6, #2
 8000384:	d10e      	bne.n	80003a4 <HAL_GPIO_Init+0x54>
        CLEAR_BIT(temp, 0xFU << ((uint32_t)(position & 0x07U) * 4U)) ;      
 8000386:	2507      	movs	r5, #7
 8000388:	401d      	ands	r5, r3
 800038a:	00ad      	lsls	r5, r5, #2
 800038c:	3901      	subs	r1, #1
 800038e:	40a9      	lsls	r1, r5
        temp = GPIOx->AFR[position >> 3];
 8000390:	08dc      	lsrs	r4, r3, #3
 8000392:	00a4      	lsls	r4, r4, #2
 8000394:	1904      	adds	r4, r0, r4
 8000396:	6a27      	ldr	r7, [r4, #32]
        CLEAR_BIT(temp, 0xFU << ((uint32_t)(position & 0x07U) * 4U)) ;      
 8000398:	438f      	bics	r7, r1
        SET_BIT(temp, (uint32_t)(GPIO_Init->Alternate) << (((uint32_t)position & 0x07U) * 4U));       
 800039a:	9901      	ldr	r1, [sp, #4]
 800039c:	6909      	ldr	r1, [r1, #16]
 800039e:	40a9      	lsls	r1, r5
 80003a0:	430f      	orrs	r7, r1
        GPIOx->AFR[position >> 3U] = temp;
 80003a2:	6227      	str	r7, [r4, #32]
      CLEAR_BIT(temp, GPIO_MODER_MODER0 << (position * 2U));   
 80003a4:	2403      	movs	r4, #3
 80003a6:	005f      	lsls	r7, r3, #1
 80003a8:	40bc      	lsls	r4, r7
 80003aa:	43e4      	mvns	r4, r4
      temp = GPIOx->MODER;
 80003ac:	6805      	ldr	r5, [r0, #0]
      if ((GPIO_Init->Mode == GPIO_MODE_OUTPUT_PP) || (GPIO_Init->Mode == GPIO_MODE_AF_PP) ||
 80003ae:	3e01      	subs	r6, #1
      CLEAR_BIT(temp, GPIO_MODER_MODER0 << (position * 2U));   
 80003b0:	4025      	ands	r5, r4
 80003b2:	46ac      	mov	ip, r5
      SET_BIT(temp, (GPIO_Init->Mode & GPIO_MODE) << (position * 2U));
 80003b4:	2503      	movs	r5, #3
 80003b6:	4015      	ands	r5, r2
 80003b8:	40bd      	lsls	r5, r7
 80003ba:	4661      	mov	r1, ip
 80003bc:	430d      	orrs	r5, r1
      GPIOx->MODER = temp;
 80003be:	6005      	str	r5, [r0, #0]
      if ((GPIO_Init->Mode == GPIO_MODE_OUTPUT_PP) || (GPIO_Init->Mode == GPIO_MODE_AF_PP) ||
 80003c0:	2e01      	cmp	r6, #1
 80003c2:	d80f      	bhi.n	80003e4 <HAL_GPIO_Init+0x94>
        SET_BIT(temp, GPIO_Init->Speed << (position * 2U));
 80003c4:	9901      	ldr	r1, [sp, #4]
        temp = GPIOx->OSPEEDR; 
 80003c6:	6886      	ldr	r6, [r0, #8]
        SET_BIT(temp, GPIO_Init->Speed << (position * 2U));
 80003c8:	68cd      	ldr	r5, [r1, #12]
        CLEAR_BIT(temp, GPIO_OSPEEDER_OSPEEDR0 << (position * 2U));
 80003ca:	4026      	ands	r6, r4
        SET_BIT(temp, GPIO_Init->Speed << (position * 2U));
 80003cc:	40bd      	lsls	r5, r7
 80003ce:	4335      	orrs	r5, r6
        GPIOx->OSPEEDR = temp;
 80003d0:	6085      	str	r5, [r0, #8]
        temp = GPIOx->OTYPER;
 80003d2:	6846      	ldr	r6, [r0, #4]
        CLEAR_BIT(temp, GPIO_OTYPER_OT_0 << position) ;
 80003d4:	9903      	ldr	r1, [sp, #12]
        SET_BIT(temp, ((GPIO_Init->Mode & GPIO_OUTPUT_TYPE) >> 4U) << position);
 80003d6:	0915      	lsrs	r5, r2, #4
        CLEAR_BIT(temp, GPIO_OTYPER_OT_0 << position) ;
 80003d8:	438e      	bics	r6, r1
        SET_BIT(temp, ((GPIO_Init->Mode & GPIO_OUTPUT_TYPE) >> 4U) << position);
 80003da:	2101      	movs	r1, #1
 80003dc:	400d      	ands	r5, r1
 80003de:	409d      	lsls	r5, r3
 80003e0:	4335      	orrs	r5, r6
        GPIOx->OTYPER = temp;
 80003e2:	6045      	str	r5, [r0, #4]
      temp = GPIOx->PUPDR;
 80003e4:	68c5      	ldr	r5, [r0, #12]
      SET_BIT(temp, (GPIO_Init->Pull) << (position * 2U));
 80003e6:	9901      	ldr	r1, [sp, #4]
      CLEAR_BIT(temp, GPIO_PUPDR_PUPDR0 << (position * 2U));
 80003e8:	402c      	ands	r4, r5
      SET_BIT(temp, (GPIO_Init->Pull) << (position * 2U));
 80003ea:	688d      	ldr	r5, [r1, #8]
      if((GPIO_Init->Mode & EXTI_MODE) == EXTI_MODE) 
 80003ec:	2180      	movs	r1, #128	; 0x80
      SET_BIT(temp, (GPIO_Init->Pull) << (position * 2U));
 80003ee:	40bd      	lsls	r5, r7
      if((GPIO_Init->Mode & EXTI_MODE) == EXTI_MODE) 
 80003f0:	0549      	lsls	r1, r1, #21
      SET_BIT(temp, (GPIO_Init->Pull) << (position * 2U));
 80003f2:	432c      	orrs	r4, r5
      GPIOx->PUPDR = temp;
 80003f4:	60c4      	str	r4, [r0, #12]
      if((GPIO_Init->Mode & EXTI_MODE) == EXTI_MODE) 
 80003f6:	420a      	tst	r2, r1
 80003f8:	d04b      	beq.n	8000492 <HAL_GPIO_Init+0x142>
        __HAL_RCC_SYSCFG_CLK_ENABLE();
 80003fa:	2101      	movs	r1, #1
 80003fc:	4c26      	ldr	r4, [pc, #152]	; (8000498 <HAL_GPIO_Init+0x148>)
        CLEAR_BIT(temp, (0x0FU) << (4U * (position & 0x03U)));
 80003fe:	2603      	movs	r6, #3
        __HAL_RCC_SYSCFG_CLK_ENABLE();
 8000400:	69a5      	ldr	r5, [r4, #24]
        CLEAR_BIT(temp, (0x0FU) << (4U * (position & 0x03U)));
 8000402:	401e      	ands	r6, r3
        __HAL_RCC_SYSCFG_CLK_ENABLE();
 8000404:	430d      	orrs	r5, r1
 8000406:	61a5      	str	r5, [r4, #24]
 8000408:	69a4      	ldr	r4, [r4, #24]
        temp = SYSCFG->EXTICR[position >> 2];
 800040a:	089d      	lsrs	r5, r3, #2
        __HAL_RCC_SYSCFG_CLK_ENABLE();
 800040c:	400c      	ands	r4, r1
 800040e:	9405      	str	r4, [sp, #20]
 8000410:	9c05      	ldr	r4, [sp, #20]
        CLEAR_BIT(temp, (0x0FU) << (4U * (position & 0x03U)));
 8000412:	240f      	movs	r4, #15
 8000414:	4921      	ldr	r1, [pc, #132]	; (800049c <HAL_GPIO_Init+0x14c>)
 8000416:	00ad      	lsls	r5, r5, #2
 8000418:	00b6      	lsls	r6, r6, #2
 800041a:	186d      	adds	r5, r5, r1
 800041c:	40b4      	lsls	r4, r6
        SET_BIT(temp, (GPIO_GET_INDEX(GPIOx)) << (4U * (position & 0x03U)));
 800041e:	2190      	movs	r1, #144	; 0x90
        temp = SYSCFG->EXTICR[position >> 2];
 8000420:	68af      	ldr	r7, [r5, #8]
        SET_BIT(temp, (GPIO_GET_INDEX(GPIOx)) << (4U * (position & 0x03U)));
 8000422:	05c9      	lsls	r1, r1, #23
        CLEAR_BIT(temp, (0x0FU) << (4U * (position & 0x03U)));
 8000424:	43a7      	bics	r7, r4
        SET_BIT(temp, (GPIO_GET_INDEX(GPIOx)) << (4U * (position & 0x03U)));
 8000426:	2400      	movs	r4, #0
 8000428:	4288      	cmp	r0, r1
 800042a:	d00c      	beq.n	8000446 <HAL_GPIO_Init+0xf6>
 800042c:	491c      	ldr	r1, [pc, #112]	; (80004a0 <HAL_GPIO_Init+0x150>)
 800042e:	3401      	adds	r4, #1
 8000430:	4288      	cmp	r0, r1
 8000432:	d008      	beq.n	8000446 <HAL_GPIO_Init+0xf6>
 8000434:	491b      	ldr	r1, [pc, #108]	; (80004a4 <HAL_GPIO_Init+0x154>)
 8000436:	3401      	adds	r4, #1
 8000438:	4288      	cmp	r0, r1
 800043a:	d004      	beq.n	8000446 <HAL_GPIO_Init+0xf6>
 800043c:	491a      	ldr	r1, [pc, #104]	; (80004a8 <HAL_GPIO_Init+0x158>)
 800043e:	3403      	adds	r4, #3
 8000440:	4288      	cmp	r0, r1
 8000442:	d100      	bne.n	8000446 <HAL_GPIO_Init+0xf6>
 8000444:	3c02      	subs	r4, #2
 8000446:	40b4      	lsls	r4, r6
        CLEAR_BIT(temp, (uint32_t)iocurrent);
 8000448:	9900      	ldr	r1, [sp, #0]
        SET_BIT(temp, (GPIO_GET_INDEX(GPIOx)) << (4U * (position & 0x03U)));
 800044a:	433c      	orrs	r4, r7
          SET_BIT(temp, iocurrent); 
 800044c:	000e      	movs	r6, r1
        SYSCFG->EXTICR[position >> 2] = temp;
 800044e:	60ac      	str	r4, [r5, #8]
        temp = EXTI->IMR;
 8000450:	4c16      	ldr	r4, [pc, #88]	; (80004ac <HAL_GPIO_Init+0x15c>)
        CLEAR_BIT(temp, (uint32_t)iocurrent);
 8000452:	43cd      	mvns	r5, r1
        temp = EXTI->IMR;
 8000454:	6827      	ldr	r7, [r4, #0]
          SET_BIT(temp, iocurrent); 
 8000456:	433e      	orrs	r6, r7
        if((GPIO_Init->Mode & GPIO_MODE_IT) == GPIO_MODE_IT)
 8000458:	03d1      	lsls	r1, r2, #15
 800045a:	d401      	bmi.n	8000460 <HAL_GPIO_Init+0x110>
        CLEAR_BIT(temp, (uint32_t)iocurrent);
 800045c:	003e      	movs	r6, r7
 800045e:	402e      	ands	r6, r5
        EXTI->IMR = temp;
 8000460:	6026      	str	r6, [r4, #0]
        temp = EXTI->EMR;
 8000462:	6867      	ldr	r7, [r4, #4]
          SET_BIT(temp, iocurrent); 
 8000464:	9e00      	ldr	r6, [sp, #0]
 8000466:	433e      	orrs	r6, r7
        if((GPIO_Init->Mode & GPIO_MODE_EVT) == GPIO_MODE_EVT)
 8000468:	0391      	lsls	r1, r2, #14
 800046a:	d401      	bmi.n	8000470 <HAL_GPIO_Init+0x120>
        CLEAR_BIT(temp, (uint32_t)iocurrent);      
 800046c:	003e      	movs	r6, r7
 800046e:	402e      	ands	r6, r5
        EXTI->EMR = temp;
 8000470:	6066      	str	r6, [r4, #4]
        temp = EXTI->RTSR;
 8000472:	68a7      	ldr	r7, [r4, #8]
          SET_BIT(temp, iocurrent); 
 8000474:	9e00      	ldr	r6, [sp, #0]
 8000476:	433e      	orrs	r6, r7
        if((GPIO_Init->Mode & RISING_EDGE) == RISING_EDGE)
 8000478:	02d1      	lsls	r1, r2, #11
 800047a:	d401      	bmi.n	8000480 <HAL_GPIO_Init+0x130>
        CLEAR_BIT(temp, (uint32_t)iocurrent); 
 800047c:	003e      	movs	r6, r7
 800047e:	402e      	ands	r6, r5
        EXTI->RTSR = temp;
 8000480:	60a6      	str	r6, [r4, #8]
        temp = EXTI->FTSR;
 8000482:	68e6      	ldr	r6, [r4, #12]
          SET_BIT(temp, iocurrent); 
 8000484:	9f00      	ldr	r7, [sp, #0]
 8000486:	4337      	orrs	r7, r6
        if((GPIO_Init->Mode & FALLING_EDGE) == FALLING_EDGE)
 8000488:	0292      	lsls	r2, r2, #10
 800048a:	d401      	bmi.n	8000490 <HAL_GPIO_Init+0x140>
        CLEAR_BIT(temp, (uint32_t)iocurrent); 
 800048c:	402e      	ands	r6, r5
 800048e:	0037      	movs	r7, r6
        EXTI->FTSR = temp;
 8000490:	60e7      	str	r7, [r4, #12]
    position++;
 8000492:	3301      	adds	r3, #1
 8000494:	e762      	b.n	800035c <HAL_GPIO_Init+0xc>
 8000496:	46c0      	nop			; (mov r8, r8)
 8000498:	40021000 	.word	0x40021000
 800049c:	40010000 	.word	0x40010000
 80004a0:	48000400 	.word	0x48000400
 80004a4:	48000800 	.word	0x48000800
 80004a8:	48000c00 	.word	0x48000c00
 80004ac:	40010400 	.word	0x40010400

080004b0 <HAL_GPIO_WritePin>:
{
  /* Check the parameters */
  assert_param(IS_GPIO_PIN(GPIO_Pin));
  assert_param(IS_GPIO_PIN_ACTION(PinState));

  if (PinState != GPIO_PIN_RESET)
 80004b0:	2a00      	cmp	r2, #0
 80004b2:	d001      	beq.n	80004b8 <HAL_GPIO_WritePin+0x8>
  {
    GPIOx->BSRR = (uint32_t)GPIO_Pin;
 80004b4:	6181      	str	r1, [r0, #24]
  }
  else
  {
    GPIOx->BRR = (uint32_t)GPIO_Pin;
  }
}
 80004b6:	4770      	bx	lr
    GPIOx->BRR = (uint32_t)GPIO_Pin;
 80004b8:	6281      	str	r1, [r0, #40]	; 0x28
}
 80004ba:	e7fc      	b.n	80004b6 <HAL_GPIO_WritePin+0x6>

080004bc <HAL_GPIO_TogglePin>:
void HAL_GPIO_TogglePin(GPIO_TypeDef* GPIOx, uint16_t GPIO_Pin)
{
  /* Check the parameters */
  assert_param(IS_GPIO_PIN(GPIO_Pin));

  GPIOx->ODR ^= GPIO_Pin;
 80004bc:	6943      	ldr	r3, [r0, #20]
 80004be:	4059      	eors	r1, r3
 80004c0:	6141      	str	r1, [r0, #20]
}
 80004c2:	4770      	bx	lr

080004c4 <HAL_RCC_OscConfig>:
  *         supported by this macro. User should request a transition to HSE Off
  *         first and then HSE On or HSE Bypass.
  * @retval HAL status
  */
HAL_StatusTypeDef HAL_RCC_OscConfig(RCC_OscInitTypeDef  *RCC_OscInitStruct)
{
 80004c4:	b5f0      	push	{r4, r5, r6, r7, lr}
  /* Check the parameters */
  assert_param(RCC_OscInitStruct != NULL);
  assert_param(IS_RCC_OSCILLATORTYPE(RCC_OscInitStruct->OscillatorType));

  /*------------------------------- HSE Configuration ------------------------*/ 
  if(((RCC_OscInitStruct->OscillatorType) & RCC_OSCILLATORTYPE_HSE) == RCC_OSCILLATORTYPE_HSE)
 80004c6:	6803      	ldr	r3, [r0, #0]
{
 80004c8:	b085      	sub	sp, #20
 80004ca:	0005      	movs	r5, r0
  if(((RCC_OscInitStruct->OscillatorType) & RCC_OSCILLATORTYPE_HSE) == RCC_OSCILLATORTYPE_HSE)
 80004cc:	07db      	lsls	r3, r3, #31
 80004ce:	d42f      	bmi.n	8000530 <HAL_RCC_OscConfig+0x6c>
        }
      }
    }
  }
  /*----------------------------- HSI Configuration --------------------------*/ 
  if(((RCC_OscInitStruct->OscillatorType) & RCC_OSCILLATORTYPE_HSI) == RCC_OSCILLATORTYPE_HSI)
 80004d0:	682b      	ldr	r3, [r5, #0]
 80004d2:	079b      	lsls	r3, r3, #30
 80004d4:	d500      	bpl.n	80004d8 <HAL_RCC_OscConfig+0x14>
 80004d6:	e081      	b.n	80005dc <HAL_RCC_OscConfig+0x118>
        }
      }
    }
  }
  /*------------------------------ LSI Configuration -------------------------*/ 
  if(((RCC_OscInitStruct->OscillatorType) & RCC_OSCILLATORTYPE_LSI) == RCC_OSCILLATORTYPE_LSI)
 80004d8:	682b      	ldr	r3, [r5, #0]
 80004da:	071b      	lsls	r3, r3, #28
 80004dc:	d500      	bpl.n	80004e0 <HAL_RCC_OscConfig+0x1c>
 80004de:	e0bc      	b.n	800065a <HAL_RCC_OscConfig+0x196>
        }
      }
    }
  }
  /*------------------------------ LSE Configuration -------------------------*/ 
  if(((RCC_OscInitStruct->OscillatorType) & RCC_OSCILLATORTYPE_LSE) == RCC_OSCILLATORTYPE_LSE)
 80004e0:	682b      	ldr	r3, [r5, #0]
 80004e2:	075b      	lsls	r3, r3, #29
 80004e4:	d500      	bpl.n	80004e8 <HAL_RCC_OscConfig+0x24>
 80004e6:	e0df      	b.n	80006a8 <HAL_RCC_OscConfig+0x1e4>
      __HAL_RCC_PWR_CLK_DISABLE();
    }
  }

  /*----------------------------- HSI14 Configuration --------------------------*/
  if(((RCC_OscInitStruct->OscillatorType) & RCC_OSCILLATORTYPE_HSI14) == RCC_OSCILLATORTYPE_HSI14)
 80004e8:	682b      	ldr	r3, [r5, #0]
 80004ea:	06db      	lsls	r3, r3, #27
 80004ec:	d51a      	bpl.n	8000524 <HAL_RCC_OscConfig+0x60>
    /* Check the parameters */
    assert_param(IS_RCC_HSI14(RCC_OscInitStruct->HSI14State));
    assert_param(IS_RCC_CALIBRATION_VALUE(RCC_OscInitStruct->HSI14CalibrationValue));

    /* Check the HSI14 State */
    if(RCC_OscInitStruct->HSI14State == RCC_HSI14_ON)
 80004ee:	696a      	ldr	r2, [r5, #20]
 80004f0:	4cb5      	ldr	r4, [pc, #724]	; (80007c8 <HAL_RCC_OscConfig+0x304>)
 80004f2:	2304      	movs	r3, #4
 80004f4:	2a01      	cmp	r2, #1
 80004f6:	d000      	beq.n	80004fa <HAL_RCC_OscConfig+0x36>
 80004f8:	e14b      	b.n	8000792 <HAL_RCC_OscConfig+0x2ce>
    {
      /* Disable ADC control of the Internal High Speed oscillator HSI14 */
      __HAL_RCC_HSI14ADC_DISABLE();
 80004fa:	6b61      	ldr	r1, [r4, #52]	; 0x34

      /* Get Start Tick */
      tickstart = HAL_GetTick();
      
      /* Wait till HSI is ready */  
      while(__HAL_RCC_GET_FLAG(RCC_FLAG_HSI14RDY) == RESET)
 80004fc:	2602      	movs	r6, #2
      __HAL_RCC_HSI14ADC_DISABLE();
 80004fe:	430b      	orrs	r3, r1
 8000500:	6363      	str	r3, [r4, #52]	; 0x34
      __HAL_RCC_HSI14_ENABLE();
 8000502:	6b63      	ldr	r3, [r4, #52]	; 0x34
 8000504:	431a      	orrs	r2, r3
 8000506:	6362      	str	r2, [r4, #52]	; 0x34
      tickstart = HAL_GetTick();
 8000508:	f7ff feb4 	bl	8000274 <HAL_GetTick>
 800050c:	0007      	movs	r7, r0
      while(__HAL_RCC_GET_FLAG(RCC_FLAG_HSI14RDY) == RESET)
 800050e:	6b63      	ldr	r3, [r4, #52]	; 0x34
 8000510:	4233      	tst	r3, r6
 8000512:	d100      	bne.n	8000516 <HAL_RCC_OscConfig+0x52>
 8000514:	e136      	b.n	8000784 <HAL_RCC_OscConfig+0x2c0>
    {
      /* Enable ADC control of the Internal High Speed oscillator HSI14 */
      __HAL_RCC_HSI14ADC_ENABLE();

      /* Adjusts the Internal High Speed oscillator 14Mhz (HSI14) calibration value. */
      __HAL_RCC_HSI14_CALIBRATIONVALUE_ADJUST(RCC_OscInitStruct->HSI14CalibrationValue);
 8000516:	21f8      	movs	r1, #248	; 0xf8
 8000518:	6b62      	ldr	r2, [r4, #52]	; 0x34
 800051a:	69ab      	ldr	r3, [r5, #24]
 800051c:	438a      	bics	r2, r1
 800051e:	00db      	lsls	r3, r3, #3
 8000520:	4313      	orrs	r3, r2
 8000522:	6363      	str	r3, [r4, #52]	; 0x34
#endif /* RCC_HSI48_SUPPORT */
       
  /*-------------------------------- PLL Configuration -----------------------*/
  /* Check the parameters */
  assert_param(IS_RCC_PLL(RCC_OscInitStruct->PLL.PLLState));
  if ((RCC_OscInitStruct->PLL.PLLState) != RCC_PLL_NONE)
 8000524:	6a29      	ldr	r1, [r5, #32]
 8000526:	2900      	cmp	r1, #0
 8000528:	d000      	beq.n	800052c <HAL_RCC_OscConfig+0x68>
 800052a:	e159      	b.n	80007e0 <HAL_RCC_OscConfig+0x31c>
    {
      return HAL_ERROR;
    }
  }
  
  return HAL_OK;
 800052c:	2000      	movs	r0, #0
 800052e:	e013      	b.n	8000558 <HAL_RCC_OscConfig+0x94>
    if((__HAL_RCC_GET_SYSCLK_SOURCE() == RCC_SYSCLKSOURCE_STATUS_HSE) 
 8000530:	210c      	movs	r1, #12
 8000532:	4ca5      	ldr	r4, [pc, #660]	; (80007c8 <HAL_RCC_OscConfig+0x304>)
 8000534:	6862      	ldr	r2, [r4, #4]
 8000536:	400a      	ands	r2, r1
 8000538:	2a04      	cmp	r2, #4
 800053a:	d006      	beq.n	800054a <HAL_RCC_OscConfig+0x86>
       || ((__HAL_RCC_GET_SYSCLK_SOURCE() == RCC_SYSCLKSOURCE_STATUS_PLLCLK) && (__HAL_RCC_GET_PLL_OSCSOURCE() == RCC_PLLSOURCE_HSE)))
 800053c:	6863      	ldr	r3, [r4, #4]
 800053e:	400b      	ands	r3, r1
 8000540:	2b08      	cmp	r3, #8
 8000542:	d10b      	bne.n	800055c <HAL_RCC_OscConfig+0x98>
 8000544:	6863      	ldr	r3, [r4, #4]
 8000546:	03db      	lsls	r3, r3, #15
 8000548:	d508      	bpl.n	800055c <HAL_RCC_OscConfig+0x98>
      if((__HAL_RCC_GET_FLAG(RCC_FLAG_HSERDY) != RESET) && (RCC_OscInitStruct->HSEState == RCC_HSE_OFF))
 800054a:	6823      	ldr	r3, [r4, #0]
 800054c:	039b      	lsls	r3, r3, #14
 800054e:	d5bf      	bpl.n	80004d0 <HAL_RCC_OscConfig+0xc>
 8000550:	686b      	ldr	r3, [r5, #4]
 8000552:	2b00      	cmp	r3, #0
 8000554:	d1bc      	bne.n	80004d0 <HAL_RCC_OscConfig+0xc>
        return HAL_ERROR;
 8000556:	2001      	movs	r0, #1
}
 8000558:	b005      	add	sp, #20
 800055a:	bdf0      	pop	{r4, r5, r6, r7, pc}
      __HAL_RCC_HSE_CONFIG(RCC_OscInitStruct->HSEState);
 800055c:	686b      	ldr	r3, [r5, #4]
 800055e:	2b01      	cmp	r3, #1
 8000560:	d113      	bne.n	800058a <HAL_RCC_OscConfig+0xc6>
 8000562:	2380      	movs	r3, #128	; 0x80
 8000564:	6822      	ldr	r2, [r4, #0]
 8000566:	025b      	lsls	r3, r3, #9
 8000568:	4313      	orrs	r3, r2
 800056a:	6023      	str	r3, [r4, #0]
        tickstart = HAL_GetTick();
 800056c:	f7ff fe82 	bl	8000274 <HAL_GetTick>
        while(__HAL_RCC_GET_FLAG(RCC_FLAG_HSERDY) == RESET)
 8000570:	2680      	movs	r6, #128	; 0x80
        tickstart = HAL_GetTick();
 8000572:	0007      	movs	r7, r0
        while(__HAL_RCC_GET_FLAG(RCC_FLAG_HSERDY) == RESET)
 8000574:	02b6      	lsls	r6, r6, #10
 8000576:	6823      	ldr	r3, [r4, #0]
 8000578:	4233      	tst	r3, r6
 800057a:	d1a9      	bne.n	80004d0 <HAL_RCC_OscConfig+0xc>
          if((HAL_GetTick() - tickstart ) > HSE_TIMEOUT_VALUE)
 800057c:	f7ff fe7a 	bl	8000274 <HAL_GetTick>
 8000580:	1bc0      	subs	r0, r0, r7
 8000582:	2864      	cmp	r0, #100	; 0x64
 8000584:	d9f7      	bls.n	8000576 <HAL_RCC_OscConfig+0xb2>
            return HAL_TIMEOUT;
 8000586:	2003      	movs	r0, #3
 8000588:	e7e6      	b.n	8000558 <HAL_RCC_OscConfig+0x94>
      __HAL_RCC_HSE_CONFIG(RCC_OscInitStruct->HSEState);
 800058a:	2b00      	cmp	r3, #0
 800058c:	d116      	bne.n	80005bc <HAL_RCC_OscConfig+0xf8>
 800058e:	6823      	ldr	r3, [r4, #0]
 8000590:	4a8e      	ldr	r2, [pc, #568]	; (80007cc <HAL_RCC_OscConfig+0x308>)
        while(__HAL_RCC_GET_FLAG(RCC_FLAG_HSERDY) != RESET)
 8000592:	2680      	movs	r6, #128	; 0x80
      __HAL_RCC_HSE_CONFIG(RCC_OscInitStruct->HSEState);
 8000594:	4013      	ands	r3, r2
 8000596:	6023      	str	r3, [r4, #0]
 8000598:	6823      	ldr	r3, [r4, #0]
 800059a:	4a8d      	ldr	r2, [pc, #564]	; (80007d0 <HAL_RCC_OscConfig+0x30c>)
        while(__HAL_RCC_GET_FLAG(RCC_FLAG_HSERDY) != RESET)
 800059c:	02b6      	lsls	r6, r6, #10
      __HAL_RCC_HSE_CONFIG(RCC_OscInitStruct->HSEState);
 800059e:	4013      	ands	r3, r2
 80005a0:	6023      	str	r3, [r4, #0]
        tickstart = HAL_GetTick();
 80005a2:	f7ff fe67 	bl	8000274 <HAL_GetTick>
 80005a6:	0007      	movs	r7, r0
        while(__HAL_RCC_GET_FLAG(RCC_FLAG_HSERDY) != RESET)
 80005a8:	6823      	ldr	r3, [r4, #0]
 80005aa:	4233      	tst	r3, r6
 80005ac:	d100      	bne.n	80005b0 <HAL_RCC_OscConfig+0xec>
 80005ae:	e78f      	b.n	80004d0 <HAL_RCC_OscConfig+0xc>
           if((HAL_GetTick() - tickstart ) > HSE_TIMEOUT_VALUE)
 80005b0:	f7ff fe60 	bl	8000274 <HAL_GetTick>
 80005b4:	1bc0      	subs	r0, r0, r7
 80005b6:	2864      	cmp	r0, #100	; 0x64
 80005b8:	d9f6      	bls.n	80005a8 <HAL_RCC_OscConfig+0xe4>
 80005ba:	e7e4      	b.n	8000586 <HAL_RCC_OscConfig+0xc2>
      __HAL_RCC_HSE_CONFIG(RCC_OscInitStruct->HSEState);
 80005bc:	2b05      	cmp	r3, #5
 80005be:	d105      	bne.n	80005cc <HAL_RCC_OscConfig+0x108>
 80005c0:	2380      	movs	r3, #128	; 0x80
 80005c2:	6822      	ldr	r2, [r4, #0]
 80005c4:	02db      	lsls	r3, r3, #11
 80005c6:	4313      	orrs	r3, r2
 80005c8:	6023      	str	r3, [r4, #0]
 80005ca:	e7ca      	b.n	8000562 <HAL_RCC_OscConfig+0x9e>
 80005cc:	6823      	ldr	r3, [r4, #0]
 80005ce:	4a7f      	ldr	r2, [pc, #508]	; (80007cc <HAL_RCC_OscConfig+0x308>)
 80005d0:	4013      	ands	r3, r2
 80005d2:	6023      	str	r3, [r4, #0]
 80005d4:	6823      	ldr	r3, [r4, #0]
 80005d6:	4a7e      	ldr	r2, [pc, #504]	; (80007d0 <HAL_RCC_OscConfig+0x30c>)
 80005d8:	4013      	ands	r3, r2
 80005da:	e7c6      	b.n	800056a <HAL_RCC_OscConfig+0xa6>
    if((__HAL_RCC_GET_SYSCLK_SOURCE() == RCC_SYSCLKSOURCE_STATUS_HSI) 
 80005dc:	220c      	movs	r2, #12
 80005de:	4c7a      	ldr	r4, [pc, #488]	; (80007c8 <HAL_RCC_OscConfig+0x304>)
 80005e0:	6863      	ldr	r3, [r4, #4]
 80005e2:	4213      	tst	r3, r2
 80005e4:	d006      	beq.n	80005f4 <HAL_RCC_OscConfig+0x130>
       || ((__HAL_RCC_GET_SYSCLK_SOURCE() == RCC_SYSCLKSOURCE_STATUS_PLLCLK) && (__HAL_RCC_GET_PLL_OSCSOURCE() == RCC_PLLSOURCE_HSI)))
 80005e6:	6863      	ldr	r3, [r4, #4]
 80005e8:	4013      	ands	r3, r2
 80005ea:	2b08      	cmp	r3, #8
 80005ec:	d110      	bne.n	8000610 <HAL_RCC_OscConfig+0x14c>
 80005ee:	6863      	ldr	r3, [r4, #4]
 80005f0:	03db      	lsls	r3, r3, #15
 80005f2:	d40d      	bmi.n	8000610 <HAL_RCC_OscConfig+0x14c>
      if((__HAL_RCC_GET_FLAG(RCC_FLAG_HSIRDY) != RESET) && (RCC_OscInitStruct->HSIState != RCC_HSI_ON))
 80005f4:	6823      	ldr	r3, [r4, #0]
 80005f6:	079b      	lsls	r3, r3, #30
 80005f8:	d502      	bpl.n	8000600 <HAL_RCC_OscConfig+0x13c>
 80005fa:	68eb      	ldr	r3, [r5, #12]
 80005fc:	2b01      	cmp	r3, #1
 80005fe:	d1aa      	bne.n	8000556 <HAL_RCC_OscConfig+0x92>
        __HAL_RCC_HSI_CALIBRATIONVALUE_ADJUST(RCC_OscInitStruct->HSICalibrationValue);
 8000600:	21f8      	movs	r1, #248	; 0xf8
 8000602:	6822      	ldr	r2, [r4, #0]
 8000604:	692b      	ldr	r3, [r5, #16]
 8000606:	438a      	bics	r2, r1
 8000608:	00db      	lsls	r3, r3, #3
 800060a:	4313      	orrs	r3, r2
 800060c:	6023      	str	r3, [r4, #0]
 800060e:	e763      	b.n	80004d8 <HAL_RCC_OscConfig+0x14>
      if(RCC_OscInitStruct->HSIState != RCC_HSI_OFF)
 8000610:	68ea      	ldr	r2, [r5, #12]
 8000612:	2301      	movs	r3, #1
 8000614:	2a00      	cmp	r2, #0
 8000616:	d00f      	beq.n	8000638 <HAL_RCC_OscConfig+0x174>
        __HAL_RCC_HSI_ENABLE();
 8000618:	6822      	ldr	r2, [r4, #0]
        while(__HAL_RCC_GET_FLAG(RCC_FLAG_HSIRDY) == RESET)
 800061a:	2602      	movs	r6, #2
        __HAL_RCC_HSI_ENABLE();
 800061c:	4313      	orrs	r3, r2
 800061e:	6023      	str	r3, [r4, #0]
        tickstart = HAL_GetTick();
 8000620:	f7ff fe28 	bl	8000274 <HAL_GetTick>
 8000624:	0007      	movs	r7, r0
        while(__HAL_RCC_GET_FLAG(RCC_FLAG_HSIRDY) == RESET)
 8000626:	6823      	ldr	r3, [r4, #0]
 8000628:	4233      	tst	r3, r6
 800062a:	d1e9      	bne.n	8000600 <HAL_RCC_OscConfig+0x13c>
          if((HAL_GetTick() - tickstart ) > HSI_TIMEOUT_VALUE)
 800062c:	f7ff fe22 	bl	8000274 <HAL_GetTick>
 8000630:	1bc0      	subs	r0, r0, r7
 8000632:	2802      	cmp	r0, #2
 8000634:	d9f7      	bls.n	8000626 <HAL_RCC_OscConfig+0x162>
 8000636:	e7a6      	b.n	8000586 <HAL_RCC_OscConfig+0xc2>
        __HAL_RCC_HSI_DISABLE();
 8000638:	6822      	ldr	r2, [r4, #0]
        while(__HAL_RCC_GET_FLAG(RCC_FLAG_HSIRDY) != RESET)
 800063a:	2602      	movs	r6, #2
        __HAL_RCC_HSI_DISABLE();
 800063c:	439a      	bics	r2, r3
 800063e:	6022      	str	r2, [r4, #0]
        tickstart = HAL_GetTick();
 8000640:	f7ff fe18 	bl	8000274 <HAL_GetTick>
 8000644:	0007      	movs	r7, r0
        while(__HAL_RCC_GET_FLAG(RCC_FLAG_HSIRDY) != RESET)
 8000646:	6823      	ldr	r3, [r4, #0]
 8000648:	4233      	tst	r3, r6
 800064a:	d100      	bne.n	800064e <HAL_RCC_OscConfig+0x18a>
 800064c:	e744      	b.n	80004d8 <HAL_RCC_OscConfig+0x14>
          if((HAL_GetTick() - tickstart ) > HSI_TIMEOUT_VALUE)
 800064e:	f7ff fe11 	bl	8000274 <HAL_GetTick>
 8000652:	1bc0      	subs	r0, r0, r7
 8000654:	2802      	cmp	r0, #2
 8000656:	d9f6      	bls.n	8000646 <HAL_RCC_OscConfig+0x182>
 8000658:	e795      	b.n	8000586 <HAL_RCC_OscConfig+0xc2>
    if(RCC_OscInitStruct->LSIState != RCC_LSI_OFF)
 800065a:	69ea      	ldr	r2, [r5, #28]
 800065c:	2301      	movs	r3, #1
 800065e:	4c5a      	ldr	r4, [pc, #360]	; (80007c8 <HAL_RCC_OscConfig+0x304>)
 8000660:	2a00      	cmp	r2, #0
 8000662:	d010      	beq.n	8000686 <HAL_RCC_OscConfig+0x1c2>
      __HAL_RCC_LSI_ENABLE();
 8000664:	6a62      	ldr	r2, [r4, #36]	; 0x24
      while(__HAL_RCC_GET_FLAG(RCC_FLAG_LSIRDY) == RESET)
 8000666:	2602      	movs	r6, #2
      __HAL_RCC_LSI_ENABLE();
 8000668:	4313      	orrs	r3, r2
 800066a:	6263      	str	r3, [r4, #36]	; 0x24
      tickstart = HAL_GetTick();
 800066c:	f7ff fe02 	bl	8000274 <HAL_GetTick>
 8000670:	0007      	movs	r7, r0
      while(__HAL_RCC_GET_FLAG(RCC_FLAG_LSIRDY) == RESET)
 8000672:	6a63      	ldr	r3, [r4, #36]	; 0x24
 8000674:	4233      	tst	r3, r6
 8000676:	d000      	beq.n	800067a <HAL_RCC_OscConfig+0x1b6>
 8000678:	e732      	b.n	80004e0 <HAL_RCC_OscConfig+0x1c>
        if((HAL_GetTick() - tickstart ) > LSI_TIMEOUT_VALUE)
 800067a:	f7ff fdfb 	bl	8000274 <HAL_GetTick>
 800067e:	1bc0      	subs	r0, r0, r7
 8000680:	2802      	cmp	r0, #2
 8000682:	d9f6      	bls.n	8000672 <HAL_RCC_OscConfig+0x1ae>
 8000684:	e77f      	b.n	8000586 <HAL_RCC_OscConfig+0xc2>
      __HAL_RCC_LSI_DISABLE();
 8000686:	6a62      	ldr	r2, [r4, #36]	; 0x24
      while(__HAL_RCC_GET_FLAG(RCC_FLAG_LSIRDY) != RESET)
 8000688:	2602      	movs	r6, #2
      __HAL_RCC_LSI_DISABLE();
 800068a:	439a      	bics	r2, r3
 800068c:	6262      	str	r2, [r4, #36]	; 0x24
      tickstart = HAL_GetTick();
 800068e:	f7ff fdf1 	bl	8000274 <HAL_GetTick>
 8000692:	0007      	movs	r7, r0
      while(__HAL_RCC_GET_FLAG(RCC_FLAG_LSIRDY) != RESET)
 8000694:	6a63      	ldr	r3, [r4, #36]	; 0x24
 8000696:	4233      	tst	r3, r6
 8000698:	d100      	bne.n	800069c <HAL_RCC_OscConfig+0x1d8>
 800069a:	e721      	b.n	80004e0 <HAL_RCC_OscConfig+0x1c>
        if((HAL_GetTick() - tickstart ) > LSI_TIMEOUT_VALUE)
 800069c:	f7ff fdea 	bl	8000274 <HAL_GetTick>
 80006a0:	1bc0      	subs	r0, r0, r7
 80006a2:	2802      	cmp	r0, #2
 80006a4:	d9f6      	bls.n	8000694 <HAL_RCC_OscConfig+0x1d0>
 80006a6:	e76e      	b.n	8000586 <HAL_RCC_OscConfig+0xc2>
    if(__HAL_RCC_PWR_IS_CLK_DISABLED())
 80006a8:	2280      	movs	r2, #128	; 0x80
    FlagStatus       pwrclkchanged = RESET;
 80006aa:	2100      	movs	r1, #0
    if(__HAL_RCC_PWR_IS_CLK_DISABLED())
 80006ac:	4c46      	ldr	r4, [pc, #280]	; (80007c8 <HAL_RCC_OscConfig+0x304>)
 80006ae:	0552      	lsls	r2, r2, #21
 80006b0:	69e3      	ldr	r3, [r4, #28]
    FlagStatus       pwrclkchanged = RESET;
 80006b2:	9100      	str	r1, [sp, #0]
    if(__HAL_RCC_PWR_IS_CLK_DISABLED())
 80006b4:	4213      	tst	r3, r2
 80006b6:	d108      	bne.n	80006ca <HAL_RCC_OscConfig+0x206>
      __HAL_RCC_PWR_CLK_ENABLE();
 80006b8:	69e3      	ldr	r3, [r4, #28]
 80006ba:	4313      	orrs	r3, r2
 80006bc:	61e3      	str	r3, [r4, #28]
 80006be:	69e3      	ldr	r3, [r4, #28]
 80006c0:	4013      	ands	r3, r2
 80006c2:	9303      	str	r3, [sp, #12]
 80006c4:	9b03      	ldr	r3, [sp, #12]
      pwrclkchanged = SET;
 80006c6:	2301      	movs	r3, #1
 80006c8:	9300      	str	r3, [sp, #0]
    if(HAL_IS_BIT_CLR(PWR->CR, PWR_CR_DBP))
 80006ca:	2780      	movs	r7, #128	; 0x80
 80006cc:	4e41      	ldr	r6, [pc, #260]	; (80007d4 <HAL_RCC_OscConfig+0x310>)
 80006ce:	007f      	lsls	r7, r7, #1
 80006d0:	6833      	ldr	r3, [r6, #0]
 80006d2:	423b      	tst	r3, r7
 80006d4:	d006      	beq.n	80006e4 <HAL_RCC_OscConfig+0x220>
    __HAL_RCC_LSE_CONFIG(RCC_OscInitStruct->LSEState);
 80006d6:	68ab      	ldr	r3, [r5, #8]
 80006d8:	2b01      	cmp	r3, #1
 80006da:	d113      	bne.n	8000704 <HAL_RCC_OscConfig+0x240>
 80006dc:	6a22      	ldr	r2, [r4, #32]
 80006de:	4313      	orrs	r3, r2
 80006e0:	6223      	str	r3, [r4, #32]
 80006e2:	e030      	b.n	8000746 <HAL_RCC_OscConfig+0x282>
      SET_BIT(PWR->CR, PWR_CR_DBP);
 80006e4:	6833      	ldr	r3, [r6, #0]
 80006e6:	433b      	orrs	r3, r7
 80006e8:	6033      	str	r3, [r6, #0]
      tickstart = HAL_GetTick();
 80006ea:	f7ff fdc3 	bl	8000274 <HAL_GetTick>
 80006ee:	9001      	str	r0, [sp, #4]
      while(HAL_IS_BIT_CLR(PWR->CR, PWR_CR_DBP))
 80006f0:	6833      	ldr	r3, [r6, #0]
 80006f2:	423b      	tst	r3, r7
 80006f4:	d1ef      	bne.n	80006d6 <HAL_RCC_OscConfig+0x212>
        if((HAL_GetTick() - tickstart) > RCC_DBP_TIMEOUT_VALUE)
 80006f6:	f7ff fdbd 	bl	8000274 <HAL_GetTick>
 80006fa:	9b01      	ldr	r3, [sp, #4]
 80006fc:	1ac0      	subs	r0, r0, r3
 80006fe:	2864      	cmp	r0, #100	; 0x64
 8000700:	d9f6      	bls.n	80006f0 <HAL_RCC_OscConfig+0x22c>
 8000702:	e740      	b.n	8000586 <HAL_RCC_OscConfig+0xc2>
 8000704:	2201      	movs	r2, #1
    __HAL_RCC_LSE_CONFIG(RCC_OscInitStruct->LSEState);
 8000706:	2b00      	cmp	r3, #0
 8000708:	d114      	bne.n	8000734 <HAL_RCC_OscConfig+0x270>
 800070a:	6a23      	ldr	r3, [r4, #32]
      while(__HAL_RCC_GET_FLAG(RCC_FLAG_LSERDY) != RESET)
 800070c:	2702      	movs	r7, #2
    __HAL_RCC_LSE_CONFIG(RCC_OscInitStruct->LSEState);
 800070e:	4393      	bics	r3, r2
 8000710:	6223      	str	r3, [r4, #32]
 8000712:	6a23      	ldr	r3, [r4, #32]
 8000714:	3203      	adds	r2, #3
 8000716:	4393      	bics	r3, r2
 8000718:	6223      	str	r3, [r4, #32]
      tickstart = HAL_GetTick();
 800071a:	f7ff fdab 	bl	8000274 <HAL_GetTick>
 800071e:	0006      	movs	r6, r0
      while(__HAL_RCC_GET_FLAG(RCC_FLAG_LSERDY) != RESET)
 8000720:	6a23      	ldr	r3, [r4, #32]
 8000722:	423b      	tst	r3, r7
 8000724:	d025      	beq.n	8000772 <HAL_RCC_OscConfig+0x2ae>
        if((HAL_GetTick() - tickstart ) > RCC_LSE_TIMEOUT_VALUE)
 8000726:	f7ff fda5 	bl	8000274 <HAL_GetTick>
 800072a:	4b2b      	ldr	r3, [pc, #172]	; (80007d8 <HAL_RCC_OscConfig+0x314>)
 800072c:	1b80      	subs	r0, r0, r6
 800072e:	4298      	cmp	r0, r3
 8000730:	d9f6      	bls.n	8000720 <HAL_RCC_OscConfig+0x25c>
 8000732:	e728      	b.n	8000586 <HAL_RCC_OscConfig+0xc2>
    __HAL_RCC_LSE_CONFIG(RCC_OscInitStruct->LSEState);
 8000734:	2b05      	cmp	r3, #5
 8000736:	d10b      	bne.n	8000750 <HAL_RCC_OscConfig+0x28c>
 8000738:	6a21      	ldr	r1, [r4, #32]
 800073a:	3b01      	subs	r3, #1
 800073c:	430b      	orrs	r3, r1
 800073e:	6223      	str	r3, [r4, #32]
 8000740:	6a23      	ldr	r3, [r4, #32]
 8000742:	431a      	orrs	r2, r3
 8000744:	6222      	str	r2, [r4, #32]
      tickstart = HAL_GetTick();
 8000746:	f7ff fd95 	bl	8000274 <HAL_GetTick>
      while(__HAL_RCC_GET_FLAG(RCC_FLAG_LSERDY) == RESET)
 800074a:	2702      	movs	r7, #2
      tickstart = HAL_GetTick();
 800074c:	0006      	movs	r6, r0
      while(__HAL_RCC_GET_FLAG(RCC_FLAG_LSERDY) == RESET)
 800074e:	e00d      	b.n	800076c <HAL_RCC_OscConfig+0x2a8>
    __HAL_RCC_LSE_CONFIG(RCC_OscInitStruct->LSEState);
 8000750:	6a23      	ldr	r3, [r4, #32]
 8000752:	4393      	bics	r3, r2
 8000754:	2204      	movs	r2, #4
 8000756:	6223      	str	r3, [r4, #32]
 8000758:	6a23      	ldr	r3, [r4, #32]
 800075a:	4393      	bics	r3, r2
 800075c:	e7c0      	b.n	80006e0 <HAL_RCC_OscConfig+0x21c>
        if((HAL_GetTick() - tickstart ) > RCC_LSE_TIMEOUT_VALUE)
 800075e:	f7ff fd89 	bl	8000274 <HAL_GetTick>
 8000762:	4b1d      	ldr	r3, [pc, #116]	; (80007d8 <HAL_RCC_OscConfig+0x314>)
 8000764:	1b80      	subs	r0, r0, r6
 8000766:	4298      	cmp	r0, r3
 8000768:	d900      	bls.n	800076c <HAL_RCC_OscConfig+0x2a8>
 800076a:	e70c      	b.n	8000586 <HAL_RCC_OscConfig+0xc2>
      while(__HAL_RCC_GET_FLAG(RCC_FLAG_LSERDY) == RESET)
 800076c:	6a23      	ldr	r3, [r4, #32]
 800076e:	423b      	tst	r3, r7
 8000770:	d0f5      	beq.n	800075e <HAL_RCC_OscConfig+0x29a>
    if(pwrclkchanged == SET)
 8000772:	9b00      	ldr	r3, [sp, #0]
 8000774:	2b01      	cmp	r3, #1
 8000776:	d000      	beq.n	800077a <HAL_RCC_OscConfig+0x2b6>
 8000778:	e6b6      	b.n	80004e8 <HAL_RCC_OscConfig+0x24>
      __HAL_RCC_PWR_CLK_DISABLE();
 800077a:	69e3      	ldr	r3, [r4, #28]
 800077c:	4a17      	ldr	r2, [pc, #92]	; (80007dc <HAL_RCC_OscConfig+0x318>)
 800077e:	4013      	ands	r3, r2
 8000780:	61e3      	str	r3, [r4, #28]
 8000782:	e6b1      	b.n	80004e8 <HAL_RCC_OscConfig+0x24>
        if((HAL_GetTick() - tickstart) > HSI14_TIMEOUT_VALUE)
 8000784:	f7ff fd76 	bl	8000274 <HAL_GetTick>
 8000788:	1bc0      	subs	r0, r0, r7
 800078a:	2802      	cmp	r0, #2
 800078c:	d800      	bhi.n	8000790 <HAL_RCC_OscConfig+0x2cc>
 800078e:	e6be      	b.n	800050e <HAL_RCC_OscConfig+0x4a>
 8000790:	e6f9      	b.n	8000586 <HAL_RCC_OscConfig+0xc2>
    else if(RCC_OscInitStruct->HSI14State == RCC_HSI14_ADC_CONTROL)
 8000792:	3205      	adds	r2, #5
 8000794:	d103      	bne.n	800079e <HAL_RCC_OscConfig+0x2da>
      __HAL_RCC_HSI14ADC_ENABLE();
 8000796:	6b62      	ldr	r2, [r4, #52]	; 0x34
 8000798:	439a      	bics	r2, r3
 800079a:	6362      	str	r2, [r4, #52]	; 0x34
 800079c:	e6bb      	b.n	8000516 <HAL_RCC_OscConfig+0x52>
      __HAL_RCC_HSI14ADC_DISABLE();
 800079e:	6b62      	ldr	r2, [r4, #52]	; 0x34
      while(__HAL_RCC_GET_FLAG(RCC_FLAG_HSI14RDY) != RESET)
 80007a0:	2602      	movs	r6, #2
      __HAL_RCC_HSI14ADC_DISABLE();
 80007a2:	4313      	orrs	r3, r2
      __HAL_RCC_HSI14_DISABLE();
 80007a4:	2201      	movs	r2, #1
      __HAL_RCC_HSI14ADC_DISABLE();
 80007a6:	6363      	str	r3, [r4, #52]	; 0x34
      __HAL_RCC_HSI14_DISABLE();
 80007a8:	6b63      	ldr	r3, [r4, #52]	; 0x34
 80007aa:	4393      	bics	r3, r2
 80007ac:	6363      	str	r3, [r4, #52]	; 0x34
      tickstart = HAL_GetTick();
 80007ae:	f7ff fd61 	bl	8000274 <HAL_GetTick>
 80007b2:	0007      	movs	r7, r0
      while(__HAL_RCC_GET_FLAG(RCC_FLAG_HSI14RDY) != RESET)
 80007b4:	6b63      	ldr	r3, [r4, #52]	; 0x34
 80007b6:	4233      	tst	r3, r6
 80007b8:	d100      	bne.n	80007bc <HAL_RCC_OscConfig+0x2f8>
 80007ba:	e6b3      	b.n	8000524 <HAL_RCC_OscConfig+0x60>
        if((HAL_GetTick() - tickstart) > HSI14_TIMEOUT_VALUE)
 80007bc:	f7ff fd5a 	bl	8000274 <HAL_GetTick>
 80007c0:	1bc0      	subs	r0, r0, r7
 80007c2:	2802      	cmp	r0, #2
 80007c4:	d9f6      	bls.n	80007b4 <HAL_RCC_OscConfig+0x2f0>
 80007c6:	e6de      	b.n	8000586 <HAL_RCC_OscConfig+0xc2>
 80007c8:	40021000 	.word	0x40021000
 80007cc:	fffeffff 	.word	0xfffeffff
 80007d0:	fffbffff 	.word	0xfffbffff
 80007d4:	40007000 	.word	0x40007000
 80007d8:	00001388 	.word	0x00001388
 80007dc:	efffffff 	.word	0xefffffff
    if(__HAL_RCC_GET_SYSCLK_SOURCE() != RCC_SYSCLKSOURCE_STATUS_PLLCLK)
 80007e0:	220c      	movs	r2, #12
 80007e2:	4c26      	ldr	r4, [pc, #152]	; (800087c <HAL_RCC_OscConfig+0x3b8>)
      return HAL_ERROR;
 80007e4:	2001      	movs	r0, #1
    if(__HAL_RCC_GET_SYSCLK_SOURCE() != RCC_SYSCLKSOURCE_STATUS_PLLCLK)
 80007e6:	6863      	ldr	r3, [r4, #4]
 80007e8:	4013      	ands	r3, r2
 80007ea:	2b08      	cmp	r3, #8
 80007ec:	d100      	bne.n	80007f0 <HAL_RCC_OscConfig+0x32c>
 80007ee:	e6b3      	b.n	8000558 <HAL_RCC_OscConfig+0x94>
        __HAL_RCC_PLL_DISABLE();
 80007f0:	6823      	ldr	r3, [r4, #0]
 80007f2:	4a23      	ldr	r2, [pc, #140]	; (8000880 <HAL_RCC_OscConfig+0x3bc>)
 80007f4:	4013      	ands	r3, r2
 80007f6:	6023      	str	r3, [r4, #0]
      if((RCC_OscInitStruct->PLL.PLLState) == RCC_PLL_ON)
 80007f8:	2902      	cmp	r1, #2
 80007fa:	d12f      	bne.n	800085c <HAL_RCC_OscConfig+0x398>
        tickstart = HAL_GetTick();
 80007fc:	f7ff fd3a 	bl	8000274 <HAL_GetTick>
        while(__HAL_RCC_GET_FLAG(RCC_FLAG_PLLRDY)  != RESET)
 8000800:	2680      	movs	r6, #128	; 0x80
        tickstart = HAL_GetTick();
 8000802:	0007      	movs	r7, r0
        while(__HAL_RCC_GET_FLAG(RCC_FLAG_PLLRDY)  != RESET)
 8000804:	04b6      	lsls	r6, r6, #18
 8000806:	6823      	ldr	r3, [r4, #0]
 8000808:	4233      	tst	r3, r6
 800080a:	d121      	bne.n	8000850 <HAL_RCC_OscConfig+0x38c>
        __HAL_RCC_PLL_CONFIG(RCC_OscInitStruct->PLL.PLLSource,
 800080c:	220f      	movs	r2, #15
 800080e:	6ae3      	ldr	r3, [r4, #44]	; 0x2c
 8000810:	4393      	bics	r3, r2
 8000812:	6aea      	ldr	r2, [r5, #44]	; 0x2c
 8000814:	4313      	orrs	r3, r2
 8000816:	62e3      	str	r3, [r4, #44]	; 0x2c
 8000818:	6a69      	ldr	r1, [r5, #36]	; 0x24
 800081a:	6aab      	ldr	r3, [r5, #40]	; 0x28
 800081c:	6862      	ldr	r2, [r4, #4]
 800081e:	430b      	orrs	r3, r1
 8000820:	4918      	ldr	r1, [pc, #96]	; (8000884 <HAL_RCC_OscConfig+0x3c0>)
        while(__HAL_RCC_GET_FLAG(RCC_FLAG_PLLRDY)  == RESET)
 8000822:	2580      	movs	r5, #128	; 0x80
        __HAL_RCC_PLL_CONFIG(RCC_OscInitStruct->PLL.PLLSource,
 8000824:	400a      	ands	r2, r1
 8000826:	4313      	orrs	r3, r2
 8000828:	6063      	str	r3, [r4, #4]
        __HAL_RCC_PLL_ENABLE();
 800082a:	2380      	movs	r3, #128	; 0x80
 800082c:	6822      	ldr	r2, [r4, #0]
 800082e:	045b      	lsls	r3, r3, #17
 8000830:	4313      	orrs	r3, r2
 8000832:	6023      	str	r3, [r4, #0]
        tickstart = HAL_GetTick();
 8000834:	f7ff fd1e 	bl	8000274 <HAL_GetTick>
 8000838:	0006      	movs	r6, r0
        while(__HAL_RCC_GET_FLAG(RCC_FLAG_PLLRDY)  == RESET)
 800083a:	04ad      	lsls	r5, r5, #18
 800083c:	6823      	ldr	r3, [r4, #0]
 800083e:	422b      	tst	r3, r5
 8000840:	d000      	beq.n	8000844 <HAL_RCC_OscConfig+0x380>
 8000842:	e673      	b.n	800052c <HAL_RCC_OscConfig+0x68>
          if((HAL_GetTick() - tickstart ) > PLL_TIMEOUT_VALUE)
 8000844:	f7ff fd16 	bl	8000274 <HAL_GetTick>
 8000848:	1b80      	subs	r0, r0, r6
 800084a:	2802      	cmp	r0, #2
 800084c:	d9f6      	bls.n	800083c <HAL_RCC_OscConfig+0x378>
 800084e:	e69a      	b.n	8000586 <HAL_RCC_OscConfig+0xc2>
          if((HAL_GetTick() - tickstart ) > PLL_TIMEOUT_VALUE)
 8000850:	f7ff fd10 	bl	8000274 <HAL_GetTick>
 8000854:	1bc0      	subs	r0, r0, r7
 8000856:	2802      	cmp	r0, #2
 8000858:	d9d5      	bls.n	8000806 <HAL_RCC_OscConfig+0x342>
 800085a:	e694      	b.n	8000586 <HAL_RCC_OscConfig+0xc2>
        tickstart = HAL_GetTick();
 800085c:	f7ff fd0a 	bl	8000274 <HAL_GetTick>
        while(__HAL_RCC_GET_FLAG(RCC_FLAG_PLLRDY)  != RESET)
 8000860:	2580      	movs	r5, #128	; 0x80
        tickstart = HAL_GetTick();
 8000862:	0006      	movs	r6, r0
        while(__HAL_RCC_GET_FLAG(RCC_FLAG_PLLRDY)  != RESET)
 8000864:	04ad      	lsls	r5, r5, #18
 8000866:	6823      	ldr	r3, [r4, #0]
 8000868:	422b      	tst	r3, r5
 800086a:	d100      	bne.n	800086e <HAL_RCC_OscConfig+0x3aa>
 800086c:	e65e      	b.n	800052c <HAL_RCC_OscConfig+0x68>
          if((HAL_GetTick() - tickstart ) > PLL_TIMEOUT_VALUE)
 800086e:	f7ff fd01 	bl	8000274 <HAL_GetTick>
 8000872:	1b80      	subs	r0, r0, r6
 8000874:	2802      	cmp	r0, #2
 8000876:	d9f6      	bls.n	8000866 <HAL_RCC_OscConfig+0x3a2>
 8000878:	e685      	b.n	8000586 <HAL_RCC_OscConfig+0xc2>
 800087a:	46c0      	nop			; (mov r8, r8)
 800087c:	40021000 	.word	0x40021000
 8000880:	feffffff 	.word	0xfeffffff
 8000884:	ffc2ffff 	.word	0xffc2ffff

08000888 <HAL_RCC_GetSysClockFreq>:
  *         right SYSCLK value. Otherwise, any configuration based on this function will be incorrect.
  *         
  * @retval SYSCLK frequency
  */
uint32_t HAL_RCC_GetSysClockFreq(void)
{
 8000888:	b570      	push	{r4, r5, r6, lr}
  const uint8_t aPLLMULFactorTable[16] = { 2U,  3U,  4U,  5U,  6U,  7U,  8U,  9U,
 800088a:	4c14      	ldr	r4, [pc, #80]	; (80008dc <HAL_RCC_GetSysClockFreq+0x54>)
{
 800088c:	b088      	sub	sp, #32
  const uint8_t aPLLMULFactorTable[16] = { 2U,  3U,  4U,  5U,  6U,  7U,  8U,  9U,
 800088e:	2210      	movs	r2, #16
 8000890:	0021      	movs	r1, r4
 8000892:	4668      	mov	r0, sp
 8000894:	f000 fc1e 	bl	80010d4 <memcpy>
                                         10U, 11U, 12U, 13U, 14U, 15U, 16U, 16U};
  const uint8_t aPredivFactorTable[16] = { 1U, 2U,  3U,  4U,  5U,  6U,  7U,  8U,
 8000898:	0021      	movs	r1, r4
 800089a:	ad04      	add	r5, sp, #16
 800089c:	2210      	movs	r2, #16
 800089e:	3110      	adds	r1, #16
 80008a0:	0028      	movs	r0, r5
 80008a2:	f000 fc17 	bl	80010d4 <memcpy>
  uint32_t sysclockfreq = 0U;
  
  tmpreg = RCC->CFGR;
  
  /* Get SYSCLK source -------------------------------------------------------*/
  switch (tmpreg & RCC_CFGR_SWS)
 80008a6:	220c      	movs	r2, #12
  tmpreg = RCC->CFGR;
 80008a8:	4e0d      	ldr	r6, [pc, #52]	; (80008e0 <HAL_RCC_GetSysClockFreq+0x58>)
 80008aa:	6873      	ldr	r3, [r6, #4]
  switch (tmpreg & RCC_CFGR_SWS)
 80008ac:	401a      	ands	r2, r3
 80008ae:	2a08      	cmp	r2, #8
 80008b0:	d111      	bne.n	80008d6 <HAL_RCC_GetSysClockFreq+0x4e>
      sysclockfreq = HSE_VALUE;
      break;
    }
    case RCC_SYSCLKSOURCE_STATUS_PLLCLK:  /* PLL used as system clock */
    {
      pllmul = aPLLMULFactorTable[(uint32_t)(tmpreg & RCC_CFGR_PLLMUL) >> RCC_CFGR_PLLMUL_BITNUMBER];
 80008b2:	200f      	movs	r0, #15
 80008b4:	466a      	mov	r2, sp
 80008b6:	0c99      	lsrs	r1, r3, #18
 80008b8:	4001      	ands	r1, r0
 80008ba:	5c54      	ldrb	r4, [r2, r1]
      prediv = aPredivFactorTable[(uint32_t)(RCC->CFGR2 & RCC_CFGR2_PREDIV) >> RCC_CFGR2_PREDIV_BITNUMBER];
 80008bc:	6af2      	ldr	r2, [r6, #44]	; 0x2c
 80008be:	4002      	ands	r2, r0
 80008c0:	5ca9      	ldrb	r1, [r5, r2]
      if ((tmpreg & RCC_CFGR_PLLSRC) == RCC_PLLSOURCE_HSE)
 80008c2:	03db      	lsls	r3, r3, #15
 80008c4:	d505      	bpl.n	80008d2 <HAL_RCC_GetSysClockFreq+0x4a>
      {
        /* HSE used as PLL clock source : PLLCLK = HSE/PREDIV * PLLMUL */
        pllclk = (HSE_VALUE / prediv) * pllmul;
 80008c6:	4807      	ldr	r0, [pc, #28]	; (80008e4 <HAL_RCC_GetSysClockFreq+0x5c>)
 80008c8:	f7ff fc1e 	bl	8000108 <__udivsi3>
#if  (defined(STM32F042x6) || defined(STM32F048xx) || defined(STM32F070x6) || defined(STM32F071xB) || defined(STM32F072xB) || defined(STM32F078xx) || defined(STM32F070xB) || defined(STM32F091xC) || defined(STM32F098xx) || defined(STM32F030xC))
        /* HSI used as PLL clock source : PLLCLK = HSI/PREDIV * PLLMUL */
        pllclk = (HSI_VALUE / prediv) * pllmul;
#else
        /* HSI used as PLL clock source : PLLCLK = HSI/2 * PLLMUL */
        pllclk = (uint32_t)((HSI_VALUE >> 1U) * pllmul);
 80008cc:	4360      	muls	r0, r4
      sysclockfreq = HSI_VALUE;
      break;
    }
  }
  return sysclockfreq;
}
 80008ce:	b008      	add	sp, #32
 80008d0:	bd70      	pop	{r4, r5, r6, pc}
        pllclk = (uint32_t)((HSI_VALUE >> 1U) * pllmul);
 80008d2:	4805      	ldr	r0, [pc, #20]	; (80008e8 <HAL_RCC_GetSysClockFreq+0x60>)
 80008d4:	e7fa      	b.n	80008cc <HAL_RCC_GetSysClockFreq+0x44>
      sysclockfreq = HSE_VALUE;
 80008d6:	4803      	ldr	r0, [pc, #12]	; (80008e4 <HAL_RCC_GetSysClockFreq+0x5c>)
  return sysclockfreq;
 80008d8:	e7f9      	b.n	80008ce <HAL_RCC_GetSysClockFreq+0x46>
 80008da:	46c0      	nop			; (mov r8, r8)
 80008dc:	08001100 	.word	0x08001100
 80008e0:	40021000 	.word	0x40021000
 80008e4:	007a1200 	.word	0x007a1200
 80008e8:	003d0900 	.word	0x003d0900

080008ec <HAL_RCC_ClockConfig>:
{
 80008ec:	b5f7      	push	{r0, r1, r2, r4, r5, r6, r7, lr}
  if(FLatency > (FLASH->ACR & FLASH_ACR_LATENCY))
 80008ee:	2201      	movs	r2, #1
 80008f0:	4c43      	ldr	r4, [pc, #268]	; (8000a00 <HAL_RCC_ClockConfig+0x114>)
{
 80008f2:	0006      	movs	r6, r0
  if(FLatency > (FLASH->ACR & FLASH_ACR_LATENCY))
 80008f4:	6823      	ldr	r3, [r4, #0]
{
 80008f6:	000f      	movs	r7, r1
  if(FLatency > (FLASH->ACR & FLASH_ACR_LATENCY))
 80008f8:	4013      	ands	r3, r2
 80008fa:	428b      	cmp	r3, r1
 80008fc:	d31c      	bcc.n	8000938 <HAL_RCC_ClockConfig+0x4c>
  if(((RCC_ClkInitStruct->ClockType) & RCC_CLOCKTYPE_HCLK) == RCC_CLOCKTYPE_HCLK)
 80008fe:	6832      	ldr	r2, [r6, #0]
 8000900:	0793      	lsls	r3, r2, #30
 8000902:	d423      	bmi.n	800094c <HAL_RCC_ClockConfig+0x60>
  if(((RCC_ClkInitStruct->ClockType) & RCC_CLOCKTYPE_SYSCLK) == RCC_CLOCKTYPE_SYSCLK)
 8000904:	07d3      	lsls	r3, r2, #31
 8000906:	d429      	bmi.n	800095c <HAL_RCC_ClockConfig+0x70>
  if(FLatency < (FLASH->ACR & FLASH_ACR_LATENCY))
 8000908:	2301      	movs	r3, #1
 800090a:	6822      	ldr	r2, [r4, #0]
 800090c:	401a      	ands	r2, r3
 800090e:	4297      	cmp	r7, r2
 8000910:	d367      	bcc.n	80009e2 <HAL_RCC_ClockConfig+0xf6>
  if(((RCC_ClkInitStruct->ClockType) & RCC_CLOCKTYPE_PCLK1) == RCC_CLOCKTYPE_PCLK1)
 8000912:	6833      	ldr	r3, [r6, #0]
 8000914:	4c3b      	ldr	r4, [pc, #236]	; (8000a04 <HAL_RCC_ClockConfig+0x118>)
 8000916:	075b      	lsls	r3, r3, #29
 8000918:	d46a      	bmi.n	80009f0 <HAL_RCC_ClockConfig+0x104>
  SystemCoreClock = HAL_RCC_GetSysClockFreq() >> AHBPrescTable[(RCC->CFGR & RCC_CFGR_HPRE)>> RCC_CFGR_HPRE_BITNUMBER];
 800091a:	f7ff ffb5 	bl	8000888 <HAL_RCC_GetSysClockFreq>
 800091e:	6863      	ldr	r3, [r4, #4]
 8000920:	4a39      	ldr	r2, [pc, #228]	; (8000a08 <HAL_RCC_ClockConfig+0x11c>)
 8000922:	061b      	lsls	r3, r3, #24
 8000924:	0f1b      	lsrs	r3, r3, #28
 8000926:	5cd3      	ldrb	r3, [r2, r3]
 8000928:	40d8      	lsrs	r0, r3
 800092a:	4b38      	ldr	r3, [pc, #224]	; (8000a0c <HAL_RCC_ClockConfig+0x120>)
 800092c:	6018      	str	r0, [r3, #0]
  HAL_InitTick (TICK_INT_PRIORITY);
 800092e:	2000      	movs	r0, #0
 8000930:	f7ff fc76 	bl	8000220 <HAL_InitTick>
  return HAL_OK;
 8000934:	2000      	movs	r0, #0
 8000936:	e008      	b.n	800094a <HAL_RCC_ClockConfig+0x5e>
    __HAL_FLASH_SET_LATENCY(FLatency);
 8000938:	6823      	ldr	r3, [r4, #0]
 800093a:	4393      	bics	r3, r2
 800093c:	430b      	orrs	r3, r1
 800093e:	6023      	str	r3, [r4, #0]
    if((FLASH->ACR & FLASH_ACR_LATENCY) != FLatency)
 8000940:	6823      	ldr	r3, [r4, #0]
 8000942:	4013      	ands	r3, r2
 8000944:	4299      	cmp	r1, r3
 8000946:	d0da      	beq.n	80008fe <HAL_RCC_ClockConfig+0x12>
      return HAL_ERROR;
 8000948:	2001      	movs	r0, #1
}
 800094a:	bdfe      	pop	{r1, r2, r3, r4, r5, r6, r7, pc}
    MODIFY_REG(RCC->CFGR, RCC_CFGR_HPRE, RCC_ClkInitStruct->AHBCLKDivider);
 800094c:	20f0      	movs	r0, #240	; 0xf0
 800094e:	492d      	ldr	r1, [pc, #180]	; (8000a04 <HAL_RCC_ClockConfig+0x118>)
 8000950:	684b      	ldr	r3, [r1, #4]
 8000952:	4383      	bics	r3, r0
 8000954:	68b0      	ldr	r0, [r6, #8]
 8000956:	4303      	orrs	r3, r0
 8000958:	604b      	str	r3, [r1, #4]
 800095a:	e7d3      	b.n	8000904 <HAL_RCC_ClockConfig+0x18>
 800095c:	4d29      	ldr	r5, [pc, #164]	; (8000a04 <HAL_RCC_ClockConfig+0x118>)
    if(RCC_ClkInitStruct->SYSCLKSource == RCC_SYSCLKSOURCE_HSE)
 800095e:	6872      	ldr	r2, [r6, #4]
      if(__HAL_RCC_GET_FLAG(RCC_FLAG_HSERDY) == RESET)
 8000960:	682b      	ldr	r3, [r5, #0]
    if(RCC_ClkInitStruct->SYSCLKSource == RCC_SYSCLKSOURCE_HSE)
 8000962:	2a01      	cmp	r2, #1
 8000964:	d11a      	bne.n	800099c <HAL_RCC_ClockConfig+0xb0>
      if(__HAL_RCC_GET_FLAG(RCC_FLAG_HSERDY) == RESET)
 8000966:	039b      	lsls	r3, r3, #14
 8000968:	d5ee      	bpl.n	8000948 <HAL_RCC_ClockConfig+0x5c>
    __HAL_RCC_SYSCLK_CONFIG(RCC_ClkInitStruct->SYSCLKSource);
 800096a:	2103      	movs	r1, #3
 800096c:	686b      	ldr	r3, [r5, #4]
 800096e:	438b      	bics	r3, r1
 8000970:	4313      	orrs	r3, r2
 8000972:	606b      	str	r3, [r5, #4]
    tickstart = HAL_GetTick();
 8000974:	f7ff fc7e 	bl	8000274 <HAL_GetTick>
    if(RCC_ClkInitStruct->SYSCLKSource == RCC_SYSCLKSOURCE_HSE)
 8000978:	6873      	ldr	r3, [r6, #4]
    tickstart = HAL_GetTick();
 800097a:	9001      	str	r0, [sp, #4]
    if(RCC_ClkInitStruct->SYSCLKSource == RCC_SYSCLKSOURCE_HSE)
 800097c:	2b01      	cmp	r3, #1
 800097e:	d115      	bne.n	80009ac <HAL_RCC_ClockConfig+0xc0>
      while (__HAL_RCC_GET_SYSCLK_SOURCE() != RCC_SYSCLKSOURCE_STATUS_HSE)
 8000980:	220c      	movs	r2, #12
 8000982:	686b      	ldr	r3, [r5, #4]
 8000984:	4013      	ands	r3, r2
 8000986:	2b04      	cmp	r3, #4
 8000988:	d0be      	beq.n	8000908 <HAL_RCC_ClockConfig+0x1c>
        if((HAL_GetTick() - tickstart ) > CLOCKSWITCH_TIMEOUT_VALUE)
 800098a:	f7ff fc73 	bl	8000274 <HAL_GetTick>
 800098e:	9b01      	ldr	r3, [sp, #4]
 8000990:	1ac0      	subs	r0, r0, r3
 8000992:	4b1f      	ldr	r3, [pc, #124]	; (8000a10 <HAL_RCC_ClockConfig+0x124>)
 8000994:	4298      	cmp	r0, r3
 8000996:	d9f3      	bls.n	8000980 <HAL_RCC_ClockConfig+0x94>
          return HAL_TIMEOUT;
 8000998:	2003      	movs	r0, #3
 800099a:	e7d6      	b.n	800094a <HAL_RCC_ClockConfig+0x5e>
    else if(RCC_ClkInitStruct->SYSCLKSource == RCC_SYSCLKSOURCE_PLLCLK)
 800099c:	2a02      	cmp	r2, #2
 800099e:	d102      	bne.n	80009a6 <HAL_RCC_ClockConfig+0xba>
      if(__HAL_RCC_GET_FLAG(RCC_FLAG_PLLRDY) == RESET)
 80009a0:	019b      	lsls	r3, r3, #6
 80009a2:	d4e2      	bmi.n	800096a <HAL_RCC_ClockConfig+0x7e>
 80009a4:	e7d0      	b.n	8000948 <HAL_RCC_ClockConfig+0x5c>
      if(__HAL_RCC_GET_FLAG(RCC_FLAG_HSIRDY) == RESET)
 80009a6:	079b      	lsls	r3, r3, #30
 80009a8:	d4df      	bmi.n	800096a <HAL_RCC_ClockConfig+0x7e>
 80009aa:	e7cd      	b.n	8000948 <HAL_RCC_ClockConfig+0x5c>
    else if(RCC_ClkInitStruct->SYSCLKSource == RCC_SYSCLKSOURCE_PLLCLK)
 80009ac:	2b02      	cmp	r3, #2
 80009ae:	d012      	beq.n	80009d6 <HAL_RCC_ClockConfig+0xea>
      while (__HAL_RCC_GET_SYSCLK_SOURCE() != RCC_SYSCLKSOURCE_STATUS_HSI)
 80009b0:	220c      	movs	r2, #12
 80009b2:	686b      	ldr	r3, [r5, #4]
 80009b4:	4213      	tst	r3, r2
 80009b6:	d0a7      	beq.n	8000908 <HAL_RCC_ClockConfig+0x1c>
        if((HAL_GetTick() - tickstart ) > CLOCKSWITCH_TIMEOUT_VALUE)
 80009b8:	f7ff fc5c 	bl	8000274 <HAL_GetTick>
 80009bc:	9b01      	ldr	r3, [sp, #4]
 80009be:	1ac0      	subs	r0, r0, r3
 80009c0:	4b13      	ldr	r3, [pc, #76]	; (8000a10 <HAL_RCC_ClockConfig+0x124>)
 80009c2:	4298      	cmp	r0, r3
 80009c4:	d9f4      	bls.n	80009b0 <HAL_RCC_ClockConfig+0xc4>
 80009c6:	e7e7      	b.n	8000998 <HAL_RCC_ClockConfig+0xac>
        if((HAL_GetTick() - tickstart ) > CLOCKSWITCH_TIMEOUT_VALUE)
 80009c8:	f7ff fc54 	bl	8000274 <HAL_GetTick>
 80009cc:	9b01      	ldr	r3, [sp, #4]
 80009ce:	1ac0      	subs	r0, r0, r3
 80009d0:	4b0f      	ldr	r3, [pc, #60]	; (8000a10 <HAL_RCC_ClockConfig+0x124>)
 80009d2:	4298      	cmp	r0, r3
 80009d4:	d8e0      	bhi.n	8000998 <HAL_RCC_ClockConfig+0xac>
      while (__HAL_RCC_GET_SYSCLK_SOURCE() != RCC_SYSCLKSOURCE_STATUS_PLLCLK)
 80009d6:	220c      	movs	r2, #12
 80009d8:	686b      	ldr	r3, [r5, #4]
 80009da:	4013      	ands	r3, r2
 80009dc:	2b08      	cmp	r3, #8
 80009de:	d1f3      	bne.n	80009c8 <HAL_RCC_ClockConfig+0xdc>
 80009e0:	e792      	b.n	8000908 <HAL_RCC_ClockConfig+0x1c>
    __HAL_FLASH_SET_LATENCY(FLatency);
 80009e2:	6822      	ldr	r2, [r4, #0]
 80009e4:	439a      	bics	r2, r3
 80009e6:	6022      	str	r2, [r4, #0]
    if((FLASH->ACR & FLASH_ACR_LATENCY) != FLatency)
 80009e8:	6822      	ldr	r2, [r4, #0]
 80009ea:	421a      	tst	r2, r3
 80009ec:	d1ac      	bne.n	8000948 <HAL_RCC_ClockConfig+0x5c>
 80009ee:	e790      	b.n	8000912 <HAL_RCC_ClockConfig+0x26>
    MODIFY_REG(RCC->CFGR, RCC_CFGR_PPRE, RCC_ClkInitStruct->APB1CLKDivider);
 80009f0:	6863      	ldr	r3, [r4, #4]
 80009f2:	4a08      	ldr	r2, [pc, #32]	; (8000a14 <HAL_RCC_ClockConfig+0x128>)
 80009f4:	4013      	ands	r3, r2
 80009f6:	68f2      	ldr	r2, [r6, #12]
 80009f8:	4313      	orrs	r3, r2
 80009fa:	6063      	str	r3, [r4, #4]
 80009fc:	e78d      	b.n	800091a <HAL_RCC_ClockConfig+0x2e>
 80009fe:	46c0      	nop			; (mov r8, r8)
 8000a00:	40022000 	.word	0x40022000
 8000a04:	40021000 	.word	0x40021000
 8000a08:	08001120 	.word	0x08001120
 8000a0c:	20000000 	.word	0x20000000
 8000a10:	00001388 	.word	0x00001388
 8000a14:	fffff8ff 	.word	0xfffff8ff

08000a18 <HAL_RCC_GetHCLKFreq>:
  *         and updated within this function
  * @retval HCLK frequency
  */
uint32_t HAL_RCC_GetHCLKFreq(void)
{
  return SystemCoreClock;
 8000a18:	4b01      	ldr	r3, [pc, #4]	; (8000a20 <HAL_RCC_GetHCLKFreq+0x8>)
 8000a1a:	6818      	ldr	r0, [r3, #0]
}
 8000a1c:	4770      	bx	lr
 8000a1e:	46c0      	nop			; (mov r8, r8)
 8000a20:	20000000 	.word	0x20000000

08000a24 <HAL_TIM_Base_Start_IT>:
{
  /* Check the parameters */
  assert_param(IS_TIM_INSTANCE(htim->Instance));

   /* Enable the TIM Update interrupt */
   __HAL_TIM_ENABLE_IT(htim, TIM_IT_UPDATE);
 8000a24:	2201      	movs	r2, #1
 8000a26:	6803      	ldr	r3, [r0, #0]
 8000a28:	68d9      	ldr	r1, [r3, #12]
   /* Enable the Peripheral */
  __HAL_TIM_ENABLE(htim);

  /* Return function status */
  return HAL_OK;
}
 8000a2a:	2000      	movs	r0, #0
   __HAL_TIM_ENABLE_IT(htim, TIM_IT_UPDATE);
 8000a2c:	4311      	orrs	r1, r2
 8000a2e:	60d9      	str	r1, [r3, #12]
  __HAL_TIM_ENABLE(htim);
 8000a30:	6819      	ldr	r1, [r3, #0]
 8000a32:	430a      	orrs	r2, r1
 8000a34:	601a      	str	r2, [r3, #0]
}
 8000a36:	4770      	bx	lr

08000a38 <HAL_TIM_OC_DelayElapsedCallback>:
 8000a38:	4770      	bx	lr

08000a3a <HAL_TIM_IC_CaptureCallback>:
 8000a3a:	4770      	bx	lr

08000a3c <HAL_TIM_PWM_PulseFinishedCallback>:
 8000a3c:	4770      	bx	lr

08000a3e <HAL_TIM_TriggerCallback>:
 8000a3e:	4770      	bx	lr

08000a40 <HAL_TIM_IRQHandler>:
  * @retval None
  */
void HAL_TIM_IRQHandler(TIM_HandleTypeDef *htim)
{
  /* Capture compare 1 event */
  if(__HAL_TIM_GET_FLAG(htim, TIM_FLAG_CC1) != RESET)
 8000a40:	2202      	movs	r2, #2
 8000a42:	6803      	ldr	r3, [r0, #0]
{
 8000a44:	b510      	push	{r4, lr}
  if(__HAL_TIM_GET_FLAG(htim, TIM_FLAG_CC1) != RESET)
 8000a46:	6919      	ldr	r1, [r3, #16]
{
 8000a48:	0004      	movs	r4, r0
  if(__HAL_TIM_GET_FLAG(htim, TIM_FLAG_CC1) != RESET)
 8000a4a:	4211      	tst	r1, r2
 8000a4c:	d00e      	beq.n	8000a6c <HAL_TIM_IRQHandler+0x2c>
  {
    if(__HAL_TIM_GET_IT_SOURCE(htim, TIM_IT_CC1) !=RESET)
 8000a4e:	68d9      	ldr	r1, [r3, #12]
 8000a50:	4211      	tst	r1, r2
 8000a52:	d00b      	beq.n	8000a6c <HAL_TIM_IRQHandler+0x2c>
    {
      {
        __HAL_TIM_CLEAR_IT(htim, TIM_IT_CC1);
 8000a54:	3a05      	subs	r2, #5
 8000a56:	611a      	str	r2, [r3, #16]
        htim->Channel = HAL_TIM_ACTIVE_CHANNEL_1;

        /* Input capture event */
        if((htim->Instance->CCMR1 & TIM_CCMR1_CC1S) != 0x00U)
 8000a58:	699b      	ldr	r3, [r3, #24]
        htim->Channel = HAL_TIM_ACTIVE_CHANNEL_1;
 8000a5a:	3204      	adds	r2, #4
 8000a5c:	7702      	strb	r2, [r0, #28]
        if((htim->Instance->CCMR1 & TIM_CCMR1_CC1S) != 0x00U)
 8000a5e:	079b      	lsls	r3, r3, #30
 8000a60:	d100      	bne.n	8000a64 <HAL_TIM_IRQHandler+0x24>
 8000a62:	e079      	b.n	8000b58 <HAL_TIM_IRQHandler+0x118>
        {
          HAL_TIM_IC_CaptureCallback(htim);
 8000a64:	f7ff ffe9 	bl	8000a3a <HAL_TIM_IC_CaptureCallback>
        else
        {
          HAL_TIM_OC_DelayElapsedCallback(htim);
          HAL_TIM_PWM_PulseFinishedCallback(htim);
        }
        htim->Channel = HAL_TIM_ACTIVE_CHANNEL_CLEARED;
 8000a68:	2300      	movs	r3, #0
 8000a6a:	7723      	strb	r3, [r4, #28]
      }
    }
  }
  /* Capture compare 2 event */
  if(__HAL_TIM_GET_FLAG(htim, TIM_FLAG_CC2) != RESET)
 8000a6c:	2204      	movs	r2, #4
 8000a6e:	6823      	ldr	r3, [r4, #0]
 8000a70:	6919      	ldr	r1, [r3, #16]
 8000a72:	4211      	tst	r1, r2
 8000a74:	d010      	beq.n	8000a98 <HAL_TIM_IRQHandler+0x58>
  {
    if(__HAL_TIM_GET_IT_SOURCE(htim, TIM_IT_CC2) !=RESET)
 8000a76:	68d9      	ldr	r1, [r3, #12]
 8000a78:	4211      	tst	r1, r2
 8000a7a:	d00d      	beq.n	8000a98 <HAL_TIM_IRQHandler+0x58>
    {
      __HAL_TIM_CLEAR_IT(htim, TIM_IT_CC2);
 8000a7c:	3a09      	subs	r2, #9
 8000a7e:	611a      	str	r2, [r3, #16]
      htim->Channel = HAL_TIM_ACTIVE_CHANNEL_2;
 8000a80:	3207      	adds	r2, #7
 8000a82:	7722      	strb	r2, [r4, #28]
      /* Input capture event */
      if((htim->Instance->CCMR1 & TIM_CCMR1_CC2S) != 0x00U)
 8000a84:	699a      	ldr	r2, [r3, #24]
 8000a86:	23c0      	movs	r3, #192	; 0xc0
 8000a88:	009b      	lsls	r3, r3, #2
      {
        HAL_TIM_IC_CaptureCallback(htim);
 8000a8a:	0020      	movs	r0, r4
      if((htim->Instance->CCMR1 & TIM_CCMR1_CC2S) != 0x00U)
 8000a8c:	421a      	tst	r2, r3
 8000a8e:	d069      	beq.n	8000b64 <HAL_TIM_IRQHandler+0x124>
        HAL_TIM_IC_CaptureCallback(htim);
 8000a90:	f7ff ffd3 	bl	8000a3a <HAL_TIM_IC_CaptureCallback>
      else
      {
        HAL_TIM_OC_DelayElapsedCallback(htim);
        HAL_TIM_PWM_PulseFinishedCallback(htim);
      }
      htim->Channel = HAL_TIM_ACTIVE_CHANNEL_CLEARED;
 8000a94:	2300      	movs	r3, #0
 8000a96:	7723      	strb	r3, [r4, #28]
    }
  }
  /* Capture compare 3 event */
  if(__HAL_TIM_GET_FLAG(htim, TIM_FLAG_CC3) != RESET)
 8000a98:	2208      	movs	r2, #8
 8000a9a:	6823      	ldr	r3, [r4, #0]
 8000a9c:	6919      	ldr	r1, [r3, #16]
 8000a9e:	4211      	tst	r1, r2
 8000aa0:	d00e      	beq.n	8000ac0 <HAL_TIM_IRQHandler+0x80>
  {
    if(__HAL_TIM_GET_IT_SOURCE(htim, TIM_IT_CC3) !=RESET)
 8000aa2:	68d9      	ldr	r1, [r3, #12]
 8000aa4:	4211      	tst	r1, r2
 8000aa6:	d00b      	beq.n	8000ac0 <HAL_TIM_IRQHandler+0x80>
    {
      __HAL_TIM_CLEAR_IT(htim, TIM_IT_CC3);
 8000aa8:	3a11      	subs	r2, #17
 8000aaa:	611a      	str	r2, [r3, #16]
      htim->Channel = HAL_TIM_ACTIVE_CHANNEL_3;
      /* Input capture event */
      if((htim->Instance->CCMR2 & TIM_CCMR2_CC3S) != 0x00U)
 8000aac:	69db      	ldr	r3, [r3, #28]
      htim->Channel = HAL_TIM_ACTIVE_CHANNEL_3;
 8000aae:	320d      	adds	r2, #13
 8000ab0:	7722      	strb	r2, [r4, #28]
      {
        HAL_TIM_IC_CaptureCallback(htim);
 8000ab2:	0020      	movs	r0, r4
      if((htim->Instance->CCMR2 & TIM_CCMR2_CC3S) != 0x00U)
 8000ab4:	079b      	lsls	r3, r3, #30
 8000ab6:	d05b      	beq.n	8000b70 <HAL_TIM_IRQHandler+0x130>
        HAL_TIM_IC_CaptureCallback(htim);
 8000ab8:	f7ff ffbf 	bl	8000a3a <HAL_TIM_IC_CaptureCallback>
      else
      {
        HAL_TIM_OC_DelayElapsedCallback(htim);
        HAL_TIM_PWM_PulseFinishedCallback(htim);
      }
      htim->Channel = HAL_TIM_ACTIVE_CHANNEL_CLEARED;
 8000abc:	2300      	movs	r3, #0
 8000abe:	7723      	strb	r3, [r4, #28]
    }
  }
  /* Capture compare 4 event */
  if(__HAL_TIM_GET_FLAG(htim, TIM_FLAG_CC4) != RESET)
 8000ac0:	2210      	movs	r2, #16
 8000ac2:	6823      	ldr	r3, [r4, #0]
 8000ac4:	6919      	ldr	r1, [r3, #16]
 8000ac6:	4211      	tst	r1, r2
 8000ac8:	d010      	beq.n	8000aec <HAL_TIM_IRQHandler+0xac>
  {
    if(__HAL_TIM_GET_IT_SOURCE(htim, TIM_IT_CC4) !=RESET)
 8000aca:	68d9      	ldr	r1, [r3, #12]
 8000acc:	4211      	tst	r1, r2
 8000ace:	d00d      	beq.n	8000aec <HAL_TIM_IRQHandler+0xac>
    {
      __HAL_TIM_CLEAR_IT(htim, TIM_IT_CC4);
 8000ad0:	3a21      	subs	r2, #33	; 0x21
 8000ad2:	611a      	str	r2, [r3, #16]
      htim->Channel = HAL_TIM_ACTIVE_CHANNEL_4;
 8000ad4:	3219      	adds	r2, #25
 8000ad6:	7722      	strb	r2, [r4, #28]
      /* Input capture event */
      if((htim->Instance->CCMR2 & TIM_CCMR2_CC4S) != 0x00U)
 8000ad8:	69da      	ldr	r2, [r3, #28]
 8000ada:	23c0      	movs	r3, #192	; 0xc0
 8000adc:	009b      	lsls	r3, r3, #2
      {
        HAL_TIM_IC_CaptureCallback(htim);
 8000ade:	0020      	movs	r0, r4
      if((htim->Instance->CCMR2 & TIM_CCMR2_CC4S) != 0x00U)
 8000ae0:	421a      	tst	r2, r3
 8000ae2:	d04b      	beq.n	8000b7c <HAL_TIM_IRQHandler+0x13c>
        HAL_TIM_IC_CaptureCallback(htim);
 8000ae4:	f7ff ffa9 	bl	8000a3a <HAL_TIM_IC_CaptureCallback>
      else
      {
        HAL_TIM_OC_DelayElapsedCallback(htim);
        HAL_TIM_PWM_PulseFinishedCallback(htim);
      }
      htim->Channel = HAL_TIM_ACTIVE_CHANNEL_CLEARED;
 8000ae8:	2300      	movs	r3, #0
 8000aea:	7723      	strb	r3, [r4, #28]
    }
  }
  /* TIM Update event */
  if(__HAL_TIM_GET_FLAG(htim, TIM_FLAG_UPDATE) != RESET)
 8000aec:	2201      	movs	r2, #1
 8000aee:	6823      	ldr	r3, [r4, #0]
 8000af0:	6919      	ldr	r1, [r3, #16]
 8000af2:	4211      	tst	r1, r2
 8000af4:	d007      	beq.n	8000b06 <HAL_TIM_IRQHandler+0xc6>
  {
    if(__HAL_TIM_GET_IT_SOURCE(htim, TIM_IT_UPDATE) !=RESET)
 8000af6:	68d9      	ldr	r1, [r3, #12]
 8000af8:	4211      	tst	r1, r2
 8000afa:	d004      	beq.n	8000b06 <HAL_TIM_IRQHandler+0xc6>
    {
      __HAL_TIM_CLEAR_IT(htim, TIM_IT_UPDATE);
 8000afc:	3a03      	subs	r2, #3
 8000afe:	611a      	str	r2, [r3, #16]
      HAL_TIM_PeriodElapsedCallback(htim);
 8000b00:	0020      	movs	r0, r4
 8000b02:	f000 fa0f 	bl	8000f24 <HAL_TIM_PeriodElapsedCallback>
    }
  }
  /* TIM Break input event */
  if(__HAL_TIM_GET_FLAG(htim, TIM_FLAG_BREAK) != RESET)
 8000b06:	2280      	movs	r2, #128	; 0x80
 8000b08:	6823      	ldr	r3, [r4, #0]
 8000b0a:	6919      	ldr	r1, [r3, #16]
 8000b0c:	4211      	tst	r1, r2
 8000b0e:	d008      	beq.n	8000b22 <HAL_TIM_IRQHandler+0xe2>
  {
    if(__HAL_TIM_GET_IT_SOURCE(htim, TIM_IT_BREAK) !=RESET)
 8000b10:	68d9      	ldr	r1, [r3, #12]
 8000b12:	4211      	tst	r1, r2
 8000b14:	d005      	beq.n	8000b22 <HAL_TIM_IRQHandler+0xe2>
    {
      __HAL_TIM_CLEAR_IT(htim, TIM_IT_BREAK);
 8000b16:	3a02      	subs	r2, #2
 8000b18:	3aff      	subs	r2, #255	; 0xff
 8000b1a:	611a      	str	r2, [r3, #16]
      HAL_TIMEx_BreakCallback(htim);
 8000b1c:	0020      	movs	r0, r4
 8000b1e:	f000 f971 	bl	8000e04 <HAL_TIMEx_BreakCallback>
    }
  }
  /* TIM Trigger detection event */
  if(__HAL_TIM_GET_FLAG(htim, TIM_FLAG_TRIGGER) != RESET)
 8000b22:	2240      	movs	r2, #64	; 0x40
 8000b24:	6823      	ldr	r3, [r4, #0]
 8000b26:	6919      	ldr	r1, [r3, #16]
 8000b28:	4211      	tst	r1, r2
 8000b2a:	d007      	beq.n	8000b3c <HAL_TIM_IRQHandler+0xfc>
  {
    if(__HAL_TIM_GET_IT_SOURCE(htim, TIM_IT_TRIGGER) !=RESET)
 8000b2c:	68d9      	ldr	r1, [r3, #12]
 8000b2e:	4211      	tst	r1, r2
 8000b30:	d004      	beq.n	8000b3c <HAL_TIM_IRQHandler+0xfc>
    {
      __HAL_TIM_CLEAR_IT(htim, TIM_IT_TRIGGER);
 8000b32:	3a81      	subs	r2, #129	; 0x81
 8000b34:	611a      	str	r2, [r3, #16]
      HAL_TIM_TriggerCallback(htim);
 8000b36:	0020      	movs	r0, r4
 8000b38:	f7ff ff81 	bl	8000a3e <HAL_TIM_TriggerCallback>
    }
  }
  /* TIM commutation event */
  if(__HAL_TIM_GET_FLAG(htim, TIM_FLAG_COM) != RESET)
 8000b3c:	2220      	movs	r2, #32
 8000b3e:	6823      	ldr	r3, [r4, #0]
 8000b40:	6919      	ldr	r1, [r3, #16]
 8000b42:	4211      	tst	r1, r2
 8000b44:	d007      	beq.n	8000b56 <HAL_TIM_IRQHandler+0x116>
  {
    if(__HAL_TIM_GET_IT_SOURCE(htim, TIM_IT_COM) !=RESET)
 8000b46:	68d9      	ldr	r1, [r3, #12]
 8000b48:	4211      	tst	r1, r2
 8000b4a:	d004      	beq.n	8000b56 <HAL_TIM_IRQHandler+0x116>
    {
      __HAL_TIM_CLEAR_IT(htim, TIM_FLAG_COM);
 8000b4c:	3a41      	subs	r2, #65	; 0x41
 8000b4e:	611a      	str	r2, [r3, #16]
      HAL_TIMEx_CommutationCallback(htim);
 8000b50:	0020      	movs	r0, r4
 8000b52:	f000 f956 	bl	8000e02 <HAL_TIMEx_CommutationCallback>
    }
  }
}
 8000b56:	bd10      	pop	{r4, pc}
          HAL_TIM_OC_DelayElapsedCallback(htim);
 8000b58:	f7ff ff6e 	bl	8000a38 <HAL_TIM_OC_DelayElapsedCallback>
          HAL_TIM_PWM_PulseFinishedCallback(htim);
 8000b5c:	0020      	movs	r0, r4
 8000b5e:	f7ff ff6d 	bl	8000a3c <HAL_TIM_PWM_PulseFinishedCallback>
 8000b62:	e781      	b.n	8000a68 <HAL_TIM_IRQHandler+0x28>
        HAL_TIM_OC_DelayElapsedCallback(htim);
 8000b64:	f7ff ff68 	bl	8000a38 <HAL_TIM_OC_DelayElapsedCallback>
        HAL_TIM_PWM_PulseFinishedCallback(htim);
 8000b68:	0020      	movs	r0, r4
 8000b6a:	f7ff ff67 	bl	8000a3c <HAL_TIM_PWM_PulseFinishedCallback>
 8000b6e:	e791      	b.n	8000a94 <HAL_TIM_IRQHandler+0x54>
        HAL_TIM_OC_DelayElapsedCallback(htim);
 8000b70:	f7ff ff62 	bl	8000a38 <HAL_TIM_OC_DelayElapsedCallback>
        HAL_TIM_PWM_PulseFinishedCallback(htim);
 8000b74:	0020      	movs	r0, r4
 8000b76:	f7ff ff61 	bl	8000a3c <HAL_TIM_PWM_PulseFinishedCallback>
 8000b7a:	e79f      	b.n	8000abc <HAL_TIM_IRQHandler+0x7c>
        HAL_TIM_OC_DelayElapsedCallback(htim);
 8000b7c:	f7ff ff5c 	bl	8000a38 <HAL_TIM_OC_DelayElapsedCallback>
        HAL_TIM_PWM_PulseFinishedCallback(htim);
 8000b80:	0020      	movs	r0, r4
 8000b82:	f7ff ff5b 	bl	8000a3c <HAL_TIM_PWM_PulseFinishedCallback>
 8000b86:	e7af      	b.n	8000ae8 <HAL_TIM_IRQHandler+0xa8>

08000b88 <TIM_Base_SetConfig>:
{
  uint32_t tmpcr1 = 0U;
  tmpcr1 = TIMx->CR1;

  /* Set TIM Time Base Unit parameters ---------------------------------------*/
  if (IS_TIM_COUNTER_MODE_SELECT_INSTANCE(TIMx))
 8000b88:	4a19      	ldr	r2, [pc, #100]	; (8000bf0 <TIM_Base_SetConfig+0x68>)
{
 8000b8a:	b510      	push	{r4, lr}
  tmpcr1 = TIMx->CR1;
 8000b8c:	6803      	ldr	r3, [r0, #0]
  if (IS_TIM_COUNTER_MODE_SELECT_INSTANCE(TIMx))
 8000b8e:	4290      	cmp	r0, r2
 8000b90:	d002      	beq.n	8000b98 <TIM_Base_SetConfig+0x10>
 8000b92:	4c18      	ldr	r4, [pc, #96]	; (8000bf4 <TIM_Base_SetConfig+0x6c>)
 8000b94:	42a0      	cmp	r0, r4
 8000b96:	d108      	bne.n	8000baa <TIM_Base_SetConfig+0x22>
  {
    /* Select the Counter Mode */
    tmpcr1 &= ~(TIM_CR1_DIR | TIM_CR1_CMS);
 8000b98:	2470      	movs	r4, #112	; 0x70
 8000b9a:	43a3      	bics	r3, r4
    tmpcr1 |= Structure->CounterMode;
 8000b9c:	684c      	ldr	r4, [r1, #4]
 8000b9e:	4323      	orrs	r3, r4
  }

  if(IS_TIM_CLOCK_DIVISION_INSTANCE(TIMx))
 8000ba0:	4290      	cmp	r0, r2
 8000ba2:	d00b      	beq.n	8000bbc <TIM_Base_SetConfig+0x34>
 8000ba4:	4c13      	ldr	r4, [pc, #76]	; (8000bf4 <TIM_Base_SetConfig+0x6c>)
 8000ba6:	42a0      	cmp	r0, r4
 8000ba8:	d008      	beq.n	8000bbc <TIM_Base_SetConfig+0x34>
 8000baa:	4c13      	ldr	r4, [pc, #76]	; (8000bf8 <TIM_Base_SetConfig+0x70>)
 8000bac:	42a0      	cmp	r0, r4
 8000bae:	d005      	beq.n	8000bbc <TIM_Base_SetConfig+0x34>
 8000bb0:	4c12      	ldr	r4, [pc, #72]	; (8000bfc <TIM_Base_SetConfig+0x74>)
 8000bb2:	42a0      	cmp	r0, r4
 8000bb4:	d002      	beq.n	8000bbc <TIM_Base_SetConfig+0x34>
 8000bb6:	4c12      	ldr	r4, [pc, #72]	; (8000c00 <TIM_Base_SetConfig+0x78>)
 8000bb8:	42a0      	cmp	r0, r4
 8000bba:	d103      	bne.n	8000bc4 <TIM_Base_SetConfig+0x3c>
  {
    /* Set the clock division */
    tmpcr1 &= ~TIM_CR1_CKD;
 8000bbc:	4c11      	ldr	r4, [pc, #68]	; (8000c04 <TIM_Base_SetConfig+0x7c>)
 8000bbe:	4023      	ands	r3, r4
    tmpcr1 |= (uint32_t)Structure->ClockDivision;
 8000bc0:	68cc      	ldr	r4, [r1, #12]
 8000bc2:	4323      	orrs	r3, r4
  }

  /* Set the auto-reload preload */
  MODIFY_REG(tmpcr1, TIM_CR1_ARPE, Structure->AutoReloadPreload);
 8000bc4:	2480      	movs	r4, #128	; 0x80
 8000bc6:	43a3      	bics	r3, r4
 8000bc8:	694c      	ldr	r4, [r1, #20]
 8000bca:	4323      	orrs	r3, r4

  TIMx->CR1 = tmpcr1;
 8000bcc:	6003      	str	r3, [r0, #0]

  /* Set the Autoreload value */
  TIMx->ARR = (uint32_t)Structure->Period ;
 8000bce:	688b      	ldr	r3, [r1, #8]
 8000bd0:	62c3      	str	r3, [r0, #44]	; 0x2c

  /* Set the Prescaler value */
  TIMx->PSC = (uint32_t)Structure->Prescaler;
 8000bd2:	680b      	ldr	r3, [r1, #0]
 8000bd4:	6283      	str	r3, [r0, #40]	; 0x28

  if (IS_TIM_REPETITION_COUNTER_INSTANCE(TIMx))
 8000bd6:	4290      	cmp	r0, r2
 8000bd8:	d005      	beq.n	8000be6 <TIM_Base_SetConfig+0x5e>
 8000bda:	4b08      	ldr	r3, [pc, #32]	; (8000bfc <TIM_Base_SetConfig+0x74>)
 8000bdc:	4298      	cmp	r0, r3
 8000bde:	d002      	beq.n	8000be6 <TIM_Base_SetConfig+0x5e>
 8000be0:	4b07      	ldr	r3, [pc, #28]	; (8000c00 <TIM_Base_SetConfig+0x78>)
 8000be2:	4298      	cmp	r0, r3
 8000be4:	d101      	bne.n	8000bea <TIM_Base_SetConfig+0x62>
  {
    /* Set the Repetition Counter value */
    TIMx->RCR = Structure->RepetitionCounter;
 8000be6:	690b      	ldr	r3, [r1, #16]
 8000be8:	6303      	str	r3, [r0, #48]	; 0x30
  }

  /* Generate an update event to reload the Prescaler 
     and the repetition counter(only for TIM1 and TIM8) value immediatly */
  TIMx->EGR = TIM_EGR_UG;
 8000bea:	2301      	movs	r3, #1
 8000bec:	6143      	str	r3, [r0, #20]
}
 8000bee:	bd10      	pop	{r4, pc}
 8000bf0:	40012c00 	.word	0x40012c00
 8000bf4:	40000400 	.word	0x40000400
 8000bf8:	40002000 	.word	0x40002000
 8000bfc:	40014400 	.word	0x40014400
 8000c00:	40014800 	.word	0x40014800
 8000c04:	fffffcff 	.word	0xfffffcff

08000c08 <HAL_TIM_Base_Init>:
{
 8000c08:	b570      	push	{r4, r5, r6, lr}
 8000c0a:	0004      	movs	r4, r0
    return HAL_ERROR;
 8000c0c:	2001      	movs	r0, #1
  if(htim == NULL)
 8000c0e:	2c00      	cmp	r4, #0
 8000c10:	d014      	beq.n	8000c3c <HAL_TIM_Base_Init+0x34>
  if(htim->State == HAL_TIM_STATE_RESET)
 8000c12:	0025      	movs	r5, r4
 8000c14:	353d      	adds	r5, #61	; 0x3d
 8000c16:	782b      	ldrb	r3, [r5, #0]
 8000c18:	b2db      	uxtb	r3, r3
 8000c1a:	2b00      	cmp	r3, #0
 8000c1c:	d105      	bne.n	8000c2a <HAL_TIM_Base_Init+0x22>
    htim->Lock = HAL_UNLOCKED;
 8000c1e:	0022      	movs	r2, r4
 8000c20:	323c      	adds	r2, #60	; 0x3c
 8000c22:	7013      	strb	r3, [r2, #0]
    HAL_TIM_Base_MspInit(htim);
 8000c24:	0020      	movs	r0, r4
 8000c26:	f000 f9a9 	bl	8000f7c <HAL_TIM_Base_MspInit>
  htim->State= HAL_TIM_STATE_BUSY;
 8000c2a:	2302      	movs	r3, #2
  TIM_Base_SetConfig(htim->Instance, &htim->Init);
 8000c2c:	6820      	ldr	r0, [r4, #0]
  htim->State= HAL_TIM_STATE_BUSY;
 8000c2e:	702b      	strb	r3, [r5, #0]
  TIM_Base_SetConfig(htim->Instance, &htim->Init);
 8000c30:	1d21      	adds	r1, r4, #4
 8000c32:	f7ff ffa9 	bl	8000b88 <TIM_Base_SetConfig>
  htim->State= HAL_TIM_STATE_READY;
 8000c36:	2301      	movs	r3, #1
  return HAL_OK;
 8000c38:	2000      	movs	r0, #0
  htim->State= HAL_TIM_STATE_READY;
 8000c3a:	702b      	strb	r3, [r5, #0]
}
 8000c3c:	bd70      	pop	{r4, r5, r6, pc}
	...

08000c40 <TIM_ETR_SetConfig>:
  *          This parameter must be a value between 0x00 and 0x0F
  * @retval None
  */
void TIM_ETR_SetConfig(TIM_TypeDef* TIMx, uint32_t TIM_ExtTRGPrescaler,
                       uint32_t TIM_ExtTRGPolarity, uint32_t ExtTRGFilter)
{
 8000c40:	b530      	push	{r4, r5, lr}
  uint32_t tmpsmcr = 0U;

  tmpsmcr = TIMx->SMCR;
 8000c42:	6884      	ldr	r4, [r0, #8]

  /* Reset the ETR Bits */
  tmpsmcr &= ~(TIM_SMCR_ETF | TIM_SMCR_ETPS | TIM_SMCR_ECE | TIM_SMCR_ETP);
 8000c44:	4d03      	ldr	r5, [pc, #12]	; (8000c54 <TIM_ETR_SetConfig+0x14>)

  /* Set the Prescaler, the Filter value and the Polarity */
  tmpsmcr |= (uint32_t)(TIM_ExtTRGPrescaler | (TIM_ExtTRGPolarity | (ExtTRGFilter << 8U)));
 8000c46:	430a      	orrs	r2, r1
 8000c48:	021b      	lsls	r3, r3, #8
  tmpsmcr &= ~(TIM_SMCR_ETF | TIM_SMCR_ETPS | TIM_SMCR_ECE | TIM_SMCR_ETP);
 8000c4a:	402c      	ands	r4, r5
  tmpsmcr |= (uint32_t)(TIM_ExtTRGPrescaler | (TIM_ExtTRGPolarity | (ExtTRGFilter << 8U)));
 8000c4c:	4313      	orrs	r3, r2
 8000c4e:	4323      	orrs	r3, r4

  /* Write to TIMx SMCR */
  TIMx->SMCR = tmpsmcr;
 8000c50:	6083      	str	r3, [r0, #8]
}
 8000c52:	bd30      	pop	{r4, r5, pc}
 8000c54:	ffff00ff 	.word	0xffff00ff

08000c58 <HAL_TIM_ConfigClockSource>:
{
 8000c58:	b5f8      	push	{r3, r4, r5, r6, r7, lr}
  __HAL_LOCK(htim);
 8000c5a:	0005      	movs	r5, r0
 8000c5c:	2302      	movs	r3, #2
 8000c5e:	353c      	adds	r5, #60	; 0x3c
 8000c60:	782a      	ldrb	r2, [r5, #0]
{
 8000c62:	0004      	movs	r4, r0
  __HAL_LOCK(htim);
 8000c64:	0018      	movs	r0, r3
 8000c66:	2a01      	cmp	r2, #1
 8000c68:	d019      	beq.n	8000c9e <HAL_TIM_ConfigClockSource+0x46>
  htim->State = HAL_TIM_STATE_BUSY;
 8000c6a:	0026      	movs	r6, r4
  __HAL_LOCK(htim);
 8000c6c:	2701      	movs	r7, #1
  tmpsmcr = htim->Instance->SMCR;
 8000c6e:	6820      	ldr	r0, [r4, #0]
  htim->State = HAL_TIM_STATE_BUSY;
 8000c70:	363d      	adds	r6, #61	; 0x3d
  __HAL_LOCK(htim);
 8000c72:	702f      	strb	r7, [r5, #0]
  htim->State = HAL_TIM_STATE_BUSY;
 8000c74:	7033      	strb	r3, [r6, #0]
  tmpsmcr = htim->Instance->SMCR;
 8000c76:	6883      	ldr	r3, [r0, #8]
  tmpsmcr &= ~(TIM_SMCR_ETF | TIM_SMCR_ETPS | TIM_SMCR_ECE | TIM_SMCR_ETP);
 8000c78:	4a4f      	ldr	r2, [pc, #316]	; (8000db8 <HAL_TIM_ConfigClockSource+0x160>)
 8000c7a:	4013      	ands	r3, r2
  htim->Instance->SMCR = tmpsmcr;
 8000c7c:	6083      	str	r3, [r0, #8]
  switch (sClockSourceConfig->ClockSource)
 8000c7e:	680b      	ldr	r3, [r1, #0]
 8000c80:	2b40      	cmp	r3, #64	; 0x40
 8000c82:	d100      	bne.n	8000c86 <HAL_TIM_ConfigClockSource+0x2e>
 8000c84:	e06f      	b.n	8000d66 <HAL_TIM_ConfigClockSource+0x10e>
 8000c86:	d816      	bhi.n	8000cb6 <HAL_TIM_ConfigClockSource+0x5e>
 8000c88:	2b10      	cmp	r3, #16
 8000c8a:	d100      	bne.n	8000c8e <HAL_TIM_ConfigClockSource+0x36>
 8000c8c:	e087      	b.n	8000d9e <HAL_TIM_ConfigClockSource+0x146>
 8000c8e:	d807      	bhi.n	8000ca0 <HAL_TIM_ConfigClockSource+0x48>
 8000c90:	2b00      	cmp	r3, #0
 8000c92:	d100      	bne.n	8000c96 <HAL_TIM_ConfigClockSource+0x3e>
 8000c94:	e07d      	b.n	8000d92 <HAL_TIM_ConfigClockSource+0x13a>
  htim->State = HAL_TIM_STATE_READY;
 8000c96:	2301      	movs	r3, #1
  __HAL_UNLOCK(htim);
 8000c98:	2000      	movs	r0, #0
  htim->State = HAL_TIM_STATE_READY;
 8000c9a:	7033      	strb	r3, [r6, #0]
  __HAL_UNLOCK(htim);
 8000c9c:	7028      	strb	r0, [r5, #0]
}
 8000c9e:	bdf8      	pop	{r3, r4, r5, r6, r7, pc}
  switch (sClockSourceConfig->ClockSource)
 8000ca0:	2b20      	cmp	r3, #32
 8000ca2:	d100      	bne.n	8000ca6 <HAL_TIM_ConfigClockSource+0x4e>
 8000ca4:	e081      	b.n	8000daa <HAL_TIM_ConfigClockSource+0x152>
 8000ca6:	2b30      	cmp	r3, #48	; 0x30
 8000ca8:	d1f5      	bne.n	8000c96 <HAL_TIM_ConfigClockSource+0x3e>
   tmpsmcr &= ~TIM_SMCR_TS;
 8000caa:	2270      	movs	r2, #112	; 0x70
   tmpsmcr = TIMx->SMCR;
 8000cac:	6883      	ldr	r3, [r0, #8]
   tmpsmcr &= ~TIM_SMCR_TS;
 8000cae:	4393      	bics	r3, r2
 8000cb0:	001a      	movs	r2, r3
   tmpsmcr |= InputTriggerSource | TIM_SLAVEMODE_EXTERNAL1;
 8000cb2:	2337      	movs	r3, #55	; 0x37
 8000cb4:	e055      	b.n	8000d62 <HAL_TIM_ConfigClockSource+0x10a>
  switch (sClockSourceConfig->ClockSource)
 8000cb6:	2b70      	cmp	r3, #112	; 0x70
 8000cb8:	d033      	beq.n	8000d22 <HAL_TIM_ConfigClockSource+0xca>
 8000cba:	d81b      	bhi.n	8000cf4 <HAL_TIM_ConfigClockSource+0x9c>
 8000cbc:	2b50      	cmp	r3, #80	; 0x50
 8000cbe:	d03b      	beq.n	8000d38 <HAL_TIM_ConfigClockSource+0xe0>
 8000cc0:	2b60      	cmp	r3, #96	; 0x60
 8000cc2:	d1e8      	bne.n	8000c96 <HAL_TIM_ConfigClockSource+0x3e>
  TIMx->CCER &= ~TIM_CCER_CC2E;
 8000cc4:	2410      	movs	r4, #16
      TIM_TI2_ConfigInputStage(htim->Instance,
 8000cc6:	684b      	ldr	r3, [r1, #4]
 8000cc8:	68ca      	ldr	r2, [r1, #12]
  TIMx->CCER &= ~TIM_CCER_CC2E;
 8000cca:	6a01      	ldr	r1, [r0, #32]
  tmpccmr1 &= ~TIM_CCMR1_IC2F;
 8000ccc:	4f3b      	ldr	r7, [pc, #236]	; (8000dbc <HAL_TIM_ConfigClockSource+0x164>)
  TIMx->CCER &= ~TIM_CCER_CC2E;
 8000cce:	43a1      	bics	r1, r4
 8000cd0:	6201      	str	r1, [r0, #32]
  tmpccmr1 = TIMx->CCMR1;
 8000cd2:	6984      	ldr	r4, [r0, #24]
  tmpccmr1 |= (TIM_ICFilter << 12U);
 8000cd4:	0312      	lsls	r2, r2, #12
  tmpccmr1 &= ~TIM_CCMR1_IC2F;
 8000cd6:	403c      	ands	r4, r7
  tmpccmr1 |= (TIM_ICFilter << 12U);
 8000cd8:	4322      	orrs	r2, r4
  tmpccer &= ~(TIM_CCER_CC2P | TIM_CCER_CC2NP);
 8000cda:	24a0      	movs	r4, #160	; 0xa0
  tmpccer = TIMx->CCER;
 8000cdc:	6a01      	ldr	r1, [r0, #32]
  TIMx->CCMR1 = tmpccmr1 ;
 8000cde:	6182      	str	r2, [r0, #24]
   tmpsmcr &= ~TIM_SMCR_TS;
 8000ce0:	2270      	movs	r2, #112	; 0x70
  tmpccer &= ~(TIM_CCER_CC2P | TIM_CCER_CC2NP);
 8000ce2:	43a1      	bics	r1, r4
  tmpccer |= (TIM_ICPolarity << 4U);
 8000ce4:	011b      	lsls	r3, r3, #4
 8000ce6:	430b      	orrs	r3, r1
  TIMx->CCER = tmpccer;
 8000ce8:	6203      	str	r3, [r0, #32]
   tmpsmcr = TIMx->SMCR;
 8000cea:	6883      	ldr	r3, [r0, #8]
   tmpsmcr &= ~TIM_SMCR_TS;
 8000cec:	4393      	bics	r3, r2
 8000cee:	001a      	movs	r2, r3
   tmpsmcr |= InputTriggerSource | TIM_SLAVEMODE_EXTERNAL1;
 8000cf0:	2367      	movs	r3, #103	; 0x67
 8000cf2:	e036      	b.n	8000d62 <HAL_TIM_ConfigClockSource+0x10a>
  switch (sClockSourceConfig->ClockSource)
 8000cf4:	2280      	movs	r2, #128	; 0x80
 8000cf6:	0152      	lsls	r2, r2, #5
 8000cf8:	4293      	cmp	r3, r2
 8000cfa:	d00d      	beq.n	8000d18 <HAL_TIM_ConfigClockSource+0xc0>
 8000cfc:	2280      	movs	r2, #128	; 0x80
 8000cfe:	0192      	lsls	r2, r2, #6
 8000d00:	4293      	cmp	r3, r2
 8000d02:	d1c8      	bne.n	8000c96 <HAL_TIM_ConfigClockSource+0x3e>
      TIM_ETR_SetConfig(htim->Instance,
 8000d04:	68cb      	ldr	r3, [r1, #12]
 8000d06:	684a      	ldr	r2, [r1, #4]
 8000d08:	6889      	ldr	r1, [r1, #8]
 8000d0a:	f7ff ff99 	bl	8000c40 <TIM_ETR_SetConfig>
      htim->Instance->SMCR |= TIM_SMCR_ECE;
 8000d0e:	2380      	movs	r3, #128	; 0x80
 8000d10:	6822      	ldr	r2, [r4, #0]
 8000d12:	01db      	lsls	r3, r3, #7
 8000d14:	6891      	ldr	r1, [r2, #8]
 8000d16:	e00c      	b.n	8000d32 <HAL_TIM_ConfigClockSource+0xda>
      htim->Instance->SMCR &= ~TIM_SMCR_SMS;
 8000d18:	2207      	movs	r2, #7
 8000d1a:	6883      	ldr	r3, [r0, #8]
 8000d1c:	4393      	bics	r3, r2
   TIMx->SMCR = tmpsmcr;
 8000d1e:	6083      	str	r3, [r0, #8]
 8000d20:	e7b9      	b.n	8000c96 <HAL_TIM_ConfigClockSource+0x3e>
      TIM_ETR_SetConfig(htim->Instance,
 8000d22:	68cb      	ldr	r3, [r1, #12]
 8000d24:	684a      	ldr	r2, [r1, #4]
 8000d26:	6889      	ldr	r1, [r1, #8]
 8000d28:	f7ff ff8a 	bl	8000c40 <TIM_ETR_SetConfig>
      tmpsmcr &= ~(TIM_SMCR_SMS | TIM_SMCR_TS);
 8000d2c:	2177      	movs	r1, #119	; 0x77
      tmpsmcr = htim->Instance->SMCR;
 8000d2e:	6822      	ldr	r2, [r4, #0]
 8000d30:	6893      	ldr	r3, [r2, #8]
      htim->Instance->SMCR |= TIM_SMCR_ECE;
 8000d32:	430b      	orrs	r3, r1
 8000d34:	6093      	str	r3, [r2, #8]
    break;
 8000d36:	e7ae      	b.n	8000c96 <HAL_TIM_ConfigClockSource+0x3e>
      TIM_TI1_ConfigInputStage(htim->Instance,
 8000d38:	684a      	ldr	r2, [r1, #4]
 8000d3a:	68cb      	ldr	r3, [r1, #12]
  tmpccer = TIMx->CCER;
 8000d3c:	6a01      	ldr	r1, [r0, #32]
  TIMx->CCER &= ~TIM_CCER_CC1E;
 8000d3e:	6a04      	ldr	r4, [r0, #32]
  tmpccmr1 |= (TIM_ICFilter << 4U);
 8000d40:	011b      	lsls	r3, r3, #4
  TIMx->CCER &= ~TIM_CCER_CC1E;
 8000d42:	43bc      	bics	r4, r7
  tmpccmr1 &= ~TIM_CCMR1_IC1F;
 8000d44:	27f0      	movs	r7, #240	; 0xf0
  TIMx->CCER &= ~TIM_CCER_CC1E;
 8000d46:	6204      	str	r4, [r0, #32]
  tmpccmr1 = TIMx->CCMR1;
 8000d48:	6984      	ldr	r4, [r0, #24]
  tmpccmr1 &= ~TIM_CCMR1_IC1F;
 8000d4a:	43bc      	bics	r4, r7
  tmpccmr1 |= (TIM_ICFilter << 4U);
 8000d4c:	4323      	orrs	r3, r4
  tmpccer &= ~(TIM_CCER_CC1P | TIM_CCER_CC1NP);
 8000d4e:	240a      	movs	r4, #10
 8000d50:	43a1      	bics	r1, r4
  tmpccer |= TIM_ICPolarity;
 8000d52:	430a      	orrs	r2, r1
  TIMx->CCMR1 = tmpccmr1;
 8000d54:	6183      	str	r3, [r0, #24]
  TIMx->CCER = tmpccer;
 8000d56:	6202      	str	r2, [r0, #32]
   tmpsmcr &= ~TIM_SMCR_TS;
 8000d58:	2270      	movs	r2, #112	; 0x70
   tmpsmcr = TIMx->SMCR;
 8000d5a:	6883      	ldr	r3, [r0, #8]
   tmpsmcr &= ~TIM_SMCR_TS;
 8000d5c:	4393      	bics	r3, r2
 8000d5e:	001a      	movs	r2, r3
   tmpsmcr |= InputTriggerSource | TIM_SLAVEMODE_EXTERNAL1;
 8000d60:	2357      	movs	r3, #87	; 0x57
 8000d62:	4313      	orrs	r3, r2
 8000d64:	e7db      	b.n	8000d1e <HAL_TIM_ConfigClockSource+0xc6>
      TIM_TI1_ConfigInputStage(htim->Instance,
 8000d66:	684a      	ldr	r2, [r1, #4]
 8000d68:	68cb      	ldr	r3, [r1, #12]
  tmpccer = TIMx->CCER;
 8000d6a:	6a01      	ldr	r1, [r0, #32]
  TIMx->CCER &= ~TIM_CCER_CC1E;
 8000d6c:	6a04      	ldr	r4, [r0, #32]
  tmpccmr1 |= (TIM_ICFilter << 4U);
 8000d6e:	011b      	lsls	r3, r3, #4
  TIMx->CCER &= ~TIM_CCER_CC1E;
 8000d70:	43bc      	bics	r4, r7
  tmpccmr1 &= ~TIM_CCMR1_IC1F;
 8000d72:	27f0      	movs	r7, #240	; 0xf0
  TIMx->CCER &= ~TIM_CCER_CC1E;
 8000d74:	6204      	str	r4, [r0, #32]
  tmpccmr1 = TIMx->CCMR1;
 8000d76:	6984      	ldr	r4, [r0, #24]
  tmpccmr1 &= ~TIM_CCMR1_IC1F;
 8000d78:	43bc      	bics	r4, r7
  tmpccmr1 |= (TIM_ICFilter << 4U);
 8000d7a:	4323      	orrs	r3, r4
  tmpccer &= ~(TIM_CCER_CC1P | TIM_CCER_CC1NP);
 8000d7c:	240a      	movs	r4, #10
 8000d7e:	43a1      	bics	r1, r4
  tmpccer |= TIM_ICPolarity;
 8000d80:	430a      	orrs	r2, r1
  TIMx->CCMR1 = tmpccmr1;
 8000d82:	6183      	str	r3, [r0, #24]
  TIMx->CCER = tmpccer;
 8000d84:	6202      	str	r2, [r0, #32]
   tmpsmcr &= ~TIM_SMCR_TS;
 8000d86:	2270      	movs	r2, #112	; 0x70
   tmpsmcr = TIMx->SMCR;
 8000d88:	6883      	ldr	r3, [r0, #8]
   tmpsmcr &= ~TIM_SMCR_TS;
 8000d8a:	4393      	bics	r3, r2
 8000d8c:	001a      	movs	r2, r3
   tmpsmcr |= InputTriggerSource | TIM_SLAVEMODE_EXTERNAL1;
 8000d8e:	2347      	movs	r3, #71	; 0x47
 8000d90:	e7e7      	b.n	8000d62 <HAL_TIM_ConfigClockSource+0x10a>
   tmpsmcr &= ~TIM_SMCR_TS;
 8000d92:	2270      	movs	r2, #112	; 0x70
   tmpsmcr = TIMx->SMCR;
 8000d94:	6883      	ldr	r3, [r0, #8]
   tmpsmcr &= ~TIM_SMCR_TS;
 8000d96:	4393      	bics	r3, r2
 8000d98:	001a      	movs	r2, r3
   tmpsmcr |= InputTriggerSource | TIM_SLAVEMODE_EXTERNAL1;
 8000d9a:	2307      	movs	r3, #7
 8000d9c:	e7e1      	b.n	8000d62 <HAL_TIM_ConfigClockSource+0x10a>
   tmpsmcr &= ~TIM_SMCR_TS;
 8000d9e:	2270      	movs	r2, #112	; 0x70
   tmpsmcr = TIMx->SMCR;
 8000da0:	6883      	ldr	r3, [r0, #8]
   tmpsmcr &= ~TIM_SMCR_TS;
 8000da2:	4393      	bics	r3, r2
 8000da4:	001a      	movs	r2, r3
   tmpsmcr |= InputTriggerSource | TIM_SLAVEMODE_EXTERNAL1;
 8000da6:	2317      	movs	r3, #23
 8000da8:	e7db      	b.n	8000d62 <HAL_TIM_ConfigClockSource+0x10a>
   tmpsmcr &= ~TIM_SMCR_TS;
 8000daa:	2270      	movs	r2, #112	; 0x70
   tmpsmcr = TIMx->SMCR;
 8000dac:	6883      	ldr	r3, [r0, #8]
   tmpsmcr &= ~TIM_SMCR_TS;
 8000dae:	4393      	bics	r3, r2
 8000db0:	001a      	movs	r2, r3
   tmpsmcr |= InputTriggerSource | TIM_SLAVEMODE_EXTERNAL1;
 8000db2:	2327      	movs	r3, #39	; 0x27
 8000db4:	e7d5      	b.n	8000d62 <HAL_TIM_ConfigClockSource+0x10a>
 8000db6:	46c0      	nop			; (mov r8, r8)
 8000db8:	ffff0088 	.word	0xffff0088
 8000dbc:	ffff0fff 	.word	0xffff0fff

08000dc0 <HAL_TIMEx_MasterConfigSynchronization>:
  *         contains the selected trigger output (TRGO) and the Master/Slave 
  *         mode.
  * @retval HAL status
  */
HAL_StatusTypeDef HAL_TIMEx_MasterConfigSynchronization(TIM_HandleTypeDef *htim, TIM_MasterConfigTypeDef * sMasterConfig)
{
 8000dc0:	b530      	push	{r4, r5, lr}
  /* Check the parameters */
  assert_param(IS_TIM_MASTER_INSTANCE(htim->Instance));
  assert_param(IS_TIM_TRGO_SOURCE(sMasterConfig->MasterOutputTrigger));
  assert_param(IS_TIM_MSM_STATE(sMasterConfig->MasterSlaveMode));

  __HAL_LOCK(htim);
 8000dc2:	0004      	movs	r4, r0
 8000dc4:	343c      	adds	r4, #60	; 0x3c
 8000dc6:	7822      	ldrb	r2, [r4, #0]
{
 8000dc8:	0003      	movs	r3, r0
 8000dca:	2002      	movs	r0, #2
  __HAL_LOCK(htim);
 8000dcc:	2a01      	cmp	r2, #1
 8000dce:	d017      	beq.n	8000e00 <HAL_TIMEx_MasterConfigSynchronization+0x40>

  htim->State = HAL_TIM_STATE_BUSY;
 8000dd0:	001d      	movs	r5, r3

  /* Reset the MMS Bits */
  htim->Instance->CR2 &= ~TIM_CR2_MMS;
 8000dd2:	681b      	ldr	r3, [r3, #0]
  htim->State = HAL_TIM_STATE_BUSY;
 8000dd4:	353d      	adds	r5, #61	; 0x3d
 8000dd6:	7028      	strb	r0, [r5, #0]
  htim->Instance->CR2 &= ~TIM_CR2_MMS;
 8000dd8:	685a      	ldr	r2, [r3, #4]
 8000dda:	306e      	adds	r0, #110	; 0x6e
 8000ddc:	4382      	bics	r2, r0
 8000dde:	605a      	str	r2, [r3, #4]
  /* Select the TRGO source */
  htim->Instance->CR2 |=  sMasterConfig->MasterOutputTrigger;
 8000de0:	685a      	ldr	r2, [r3, #4]
 8000de2:	6808      	ldr	r0, [r1, #0]

  /* Reset the MSM Bit */
  htim->Instance->SMCR &= ~TIM_SMCR_MSM;
  /* Set or Reset the MSM Bit */
  htim->Instance->SMCR |= sMasterConfig->MasterSlaveMode;
 8000de4:	6849      	ldr	r1, [r1, #4]
  htim->Instance->CR2 |=  sMasterConfig->MasterOutputTrigger;
 8000de6:	4302      	orrs	r2, r0
  htim->Instance->SMCR &= ~TIM_SMCR_MSM;
 8000de8:	2080      	movs	r0, #128	; 0x80
  htim->Instance->CR2 |=  sMasterConfig->MasterOutputTrigger;
 8000dea:	605a      	str	r2, [r3, #4]
  htim->Instance->SMCR &= ~TIM_SMCR_MSM;
 8000dec:	689a      	ldr	r2, [r3, #8]
 8000dee:	4382      	bics	r2, r0
 8000df0:	609a      	str	r2, [r3, #8]
  htim->Instance->SMCR |= sMasterConfig->MasterSlaveMode;
 8000df2:	689a      	ldr	r2, [r3, #8]

  htim->State = HAL_TIM_STATE_READY;

  __HAL_UNLOCK(htim);
 8000df4:	2000      	movs	r0, #0
  htim->Instance->SMCR |= sMasterConfig->MasterSlaveMode;
 8000df6:	430a      	orrs	r2, r1
 8000df8:	609a      	str	r2, [r3, #8]
  htim->State = HAL_TIM_STATE_READY;
 8000dfa:	2301      	movs	r3, #1
 8000dfc:	702b      	strb	r3, [r5, #0]
  __HAL_UNLOCK(htim);
 8000dfe:	7020      	strb	r0, [r4, #0]

  return HAL_OK;
}
 8000e00:	bd30      	pop	{r4, r5, pc}

08000e02 <HAL_TIMEx_CommutationCallback>:
 8000e02:	4770      	bx	lr

08000e04 <HAL_TIMEx_BreakCallback>:
  UNUSED(htim);

  /* NOTE : This function Should not be modified, when the callback is needed,
            the HAL_TIMEx_BreakCallback could be implemented in the user file
   */
}
 8000e04:	4770      	bx	lr

08000e06 <SystemClock_Config>:

    /**Initializes the CPU, AHB and APB busses clocks 
    */
  RCC_OscInitStruct.OscillatorType = RCC_OSCILLATORTYPE_HSI;
  RCC_OscInitStruct.HSIState = RCC_HSI_ON;
  RCC_OscInitStruct.HSICalibrationValue = 16;
 8000e06:	2310      	movs	r3, #16
{
 8000e08:	b530      	push	{r4, r5, lr}
  RCC_OscInitStruct.PLL.PLLState = RCC_PLL_ON;
  RCC_OscInitStruct.PLL.PLLSource = RCC_PLLSOURCE_HSI;
  RCC_OscInitStruct.PLL.PLLMUL = RCC_PLL_MUL12;
 8000e0a:	22a0      	movs	r2, #160	; 0xa0
{
 8000e0c:	b091      	sub	sp, #68	; 0x44
  RCC_OscInitStruct.OscillatorType = RCC_OSCILLATORTYPE_HSI;
 8000e0e:	2402      	movs	r4, #2
  RCC_OscInitStruct.HSIState = RCC_HSI_ON;
 8000e10:	2501      	movs	r5, #1
  RCC_OscInitStruct.HSICalibrationValue = 16;
 8000e12:	9308      	str	r3, [sp, #32]
  RCC_OscInitStruct.PLL.PLLSource = RCC_PLLSOURCE_HSI;
 8000e14:	2300      	movs	r3, #0
  RCC_OscInitStruct.PLL.PLLMUL = RCC_PLL_MUL12;
 8000e16:	0392      	lsls	r2, r2, #14
  RCC_OscInitStruct.PLL.PREDIV = RCC_PREDIV_DIV1;
  if (HAL_RCC_OscConfig(&RCC_OscInitStruct) != HAL_OK)
 8000e18:	a804      	add	r0, sp, #16
  RCC_OscInitStruct.OscillatorType = RCC_OSCILLATORTYPE_HSI;
 8000e1a:	9404      	str	r4, [sp, #16]
  RCC_OscInitStruct.HSIState = RCC_HSI_ON;
 8000e1c:	9507      	str	r5, [sp, #28]
  RCC_OscInitStruct.PLL.PLLState = RCC_PLL_ON;
 8000e1e:	940c      	str	r4, [sp, #48]	; 0x30
  RCC_OscInitStruct.PLL.PLLSource = RCC_PLLSOURCE_HSI;
 8000e20:	930d      	str	r3, [sp, #52]	; 0x34
  RCC_OscInitStruct.PLL.PLLMUL = RCC_PLL_MUL12;
 8000e22:	920e      	str	r2, [sp, #56]	; 0x38
  RCC_OscInitStruct.PLL.PREDIV = RCC_PREDIV_DIV1;
 8000e24:	930f      	str	r3, [sp, #60]	; 0x3c
  if (HAL_RCC_OscConfig(&RCC_OscInitStruct) != HAL_OK)
 8000e26:	f7ff fb4d 	bl	80004c4 <HAL_RCC_OscConfig>
 8000e2a:	2800      	cmp	r0, #0
 8000e2c:	d000      	beq.n	8000e30 <SystemClock_Config+0x2a>
 8000e2e:	e7fe      	b.n	8000e2e <SystemClock_Config+0x28>
    _Error_Handler(__FILE__, __LINE__);
  }

    /**Initializes the CPU, AHB and APB busses clocks 
    */
  RCC_ClkInitStruct.ClockType = RCC_CLOCKTYPE_HCLK|RCC_CLOCKTYPE_SYSCLK
 8000e30:	2307      	movs	r3, #7
                              |RCC_CLOCKTYPE_PCLK1;
  RCC_ClkInitStruct.SYSCLKSource = RCC_SYSCLKSOURCE_PLLCLK;
  RCC_ClkInitStruct.AHBCLKDivider = RCC_SYSCLK_DIV1;
 8000e32:	9002      	str	r0, [sp, #8]
  RCC_ClkInitStruct.APB1CLKDivider = RCC_HCLK_DIV1;
 8000e34:	9003      	str	r0, [sp, #12]

  if (HAL_RCC_ClockConfig(&RCC_ClkInitStruct, FLASH_LATENCY_1) != HAL_OK)
 8000e36:	0029      	movs	r1, r5
 8000e38:	4668      	mov	r0, sp
  RCC_ClkInitStruct.SYSCLKSource = RCC_SYSCLKSOURCE_PLLCLK;
 8000e3a:	9401      	str	r4, [sp, #4]
  RCC_ClkInitStruct.ClockType = RCC_CLOCKTYPE_HCLK|RCC_CLOCKTYPE_SYSCLK
 8000e3c:	9300      	str	r3, [sp, #0]
  if (HAL_RCC_ClockConfig(&RCC_ClkInitStruct, FLASH_LATENCY_1) != HAL_OK)
 8000e3e:	f7ff fd55 	bl	80008ec <HAL_RCC_ClockConfig>
 8000e42:	1e04      	subs	r4, r0, #0
 8000e44:	d000      	beq.n	8000e48 <SystemClock_Config+0x42>
 8000e46:	e7fe      	b.n	8000e46 <SystemClock_Config+0x40>
    _Error_Handler(__FILE__, __LINE__);
  }

    /**Configure the Systick interrupt time 
    */
  HAL_SYSTICK_Config(HAL_RCC_GetHCLKFreq()/1000);
 8000e48:	f7ff fde6 	bl	8000a18 <HAL_RCC_GetHCLKFreq>
 8000e4c:	21fa      	movs	r1, #250	; 0xfa
 8000e4e:	0089      	lsls	r1, r1, #2
 8000e50:	f7ff f95a 	bl	8000108 <__udivsi3>
 8000e54:	f7ff fa4e 	bl	80002f4 <HAL_SYSTICK_Config>

    /**Configure the Systick 
    */
  HAL_SYSTICK_CLKSourceConfig(SYSTICK_CLKSOURCE_HCLK);
 8000e58:	2004      	movs	r0, #4
 8000e5a:	f7ff fa65 	bl	8000328 <HAL_SYSTICK_CLKSourceConfig>

  /* SysTick_IRQn interrupt configuration */
  HAL_NVIC_SetPriority(SysTick_IRQn, 0, 0);
 8000e5e:	2001      	movs	r0, #1
 8000e60:	0022      	movs	r2, r4
 8000e62:	0021      	movs	r1, r4
 8000e64:	4240      	negs	r0, r0
 8000e66:	f7ff fa0b 	bl	8000280 <HAL_NVIC_SetPriority>
}
 8000e6a:	b011      	add	sp, #68	; 0x44
 8000e6c:	bd30      	pop	{r4, r5, pc}
	...

08000e70 <main>:
{
 8000e70:	b570      	push	{r4, r5, r6, lr}
 8000e72:	b088      	sub	sp, #32
  HAL_Init();
 8000e74:	f7ff f9e6 	bl	8000244 <HAL_Init>
  SystemClock_Config();
 8000e78:	f7ff ffc5 	bl	8000e06 <SystemClock_Config>
{

  GPIO_InitTypeDef GPIO_InitStruct;

  /* GPIO Ports Clock Enable */
  __HAL_RCC_GPIOA_CLK_ENABLE();
 8000e7c:	2080      	movs	r0, #128	; 0x80
 8000e7e:	4a24      	ldr	r2, [pc, #144]	; (8000f10 <main+0xa0>)
 8000e80:	0280      	lsls	r0, r0, #10
 8000e82:	6951      	ldr	r1, [r2, #20]
  HAL_GPIO_WritePin(GPIOA, GPIO_PIN_4, GPIO_PIN_RESET);

  /*Configure GPIO pin : PA4 */
  GPIO_InitStruct.Pin = GPIO_PIN_4;
  GPIO_InitStruct.Mode = GPIO_MODE_OUTPUT_PP;
  GPIO_InitStruct.Pull = GPIO_NOPULL;
 8000e84:	2500      	movs	r5, #0
  __HAL_RCC_GPIOA_CLK_ENABLE();
 8000e86:	4301      	orrs	r1, r0
 8000e88:	6151      	str	r1, [r2, #20]
 8000e8a:	6953      	ldr	r3, [r2, #20]
  HAL_GPIO_WritePin(GPIOA, GPIO_PIN_4, GPIO_PIN_RESET);
 8000e8c:	2110      	movs	r1, #16
  __HAL_RCC_GPIOA_CLK_ENABLE();
 8000e8e:	4003      	ands	r3, r0
  HAL_GPIO_WritePin(GPIOA, GPIO_PIN_4, GPIO_PIN_RESET);
 8000e90:	2090      	movs	r0, #144	; 0x90
  __HAL_RCC_GPIOA_CLK_ENABLE();
 8000e92:	9300      	str	r3, [sp, #0]
  HAL_GPIO_WritePin(GPIOA, GPIO_PIN_4, GPIO_PIN_RESET);
 8000e94:	2200      	movs	r2, #0
 8000e96:	05c0      	lsls	r0, r0, #23
  __HAL_RCC_GPIOA_CLK_ENABLE();
 8000e98:	9b00      	ldr	r3, [sp, #0]
  HAL_GPIO_WritePin(GPIOA, GPIO_PIN_4, GPIO_PIN_RESET);
 8000e9a:	f7ff fb09 	bl	80004b0 <HAL_GPIO_WritePin>
  GPIO_InitStruct.Speed = GPIO_SPEED_FREQ_LOW;
  HAL_GPIO_Init(GPIOA, &GPIO_InitStruct);
 8000e9e:	2090      	movs	r0, #144	; 0x90
  GPIO_InitStruct.Mode = GPIO_MODE_OUTPUT_PP;
 8000ea0:	2301      	movs	r3, #1
  GPIO_InitStruct.Pin = GPIO_PIN_4;
 8000ea2:	2610      	movs	r6, #16
  HAL_GPIO_Init(GPIOA, &GPIO_InitStruct);
 8000ea4:	05c0      	lsls	r0, r0, #23
 8000ea6:	a903      	add	r1, sp, #12
  GPIO_InitStruct.Mode = GPIO_MODE_OUTPUT_PP;
 8000ea8:	9304      	str	r3, [sp, #16]
  GPIO_InitStruct.Pin = GPIO_PIN_4;
 8000eaa:	9603      	str	r6, [sp, #12]
  GPIO_InitStruct.Pull = GPIO_NOPULL;
 8000eac:	9505      	str	r5, [sp, #20]
  GPIO_InitStruct.Speed = GPIO_SPEED_FREQ_LOW;
 8000eae:	9506      	str	r5, [sp, #24]
  HAL_GPIO_Init(GPIOA, &GPIO_InitStruct);
 8000eb0:	f7ff fa4e 	bl	8000350 <HAL_GPIO_Init>
  htim3.Instance = TIM3;
 8000eb4:	4c17      	ldr	r4, [pc, #92]	; (8000f14 <main+0xa4>)
 8000eb6:	4b18      	ldr	r3, [pc, #96]	; (8000f18 <main+0xa8>)
  if (HAL_TIM_Base_Init(&htim3) != HAL_OK)
 8000eb8:	0020      	movs	r0, r4
  htim3.Instance = TIM3;
 8000eba:	6023      	str	r3, [r4, #0]
  htim3.Init.Prescaler = 35999;
 8000ebc:	4b17      	ldr	r3, [pc, #92]	; (8000f1c <main+0xac>)
  htim3.Init.CounterMode = TIM_COUNTERMODE_UP;
 8000ebe:	60a5      	str	r5, [r4, #8]
  htim3.Init.Prescaler = 35999;
 8000ec0:	6063      	str	r3, [r4, #4]
  htim3.Init.Period = 1333;
 8000ec2:	4b17      	ldr	r3, [pc, #92]	; (8000f20 <main+0xb0>)
  htim3.Init.ClockDivision = TIM_CLOCKDIVISION_DIV1;
 8000ec4:	6125      	str	r5, [r4, #16]
  htim3.Init.Period = 1333;
 8000ec6:	60e3      	str	r3, [r4, #12]
  htim3.Init.AutoReloadPreload = TIM_AUTORELOAD_PRELOAD_DISABLE;
 8000ec8:	61a5      	str	r5, [r4, #24]
  if (HAL_TIM_Base_Init(&htim3) != HAL_OK)
 8000eca:	f7ff fe9d 	bl	8000c08 <HAL_TIM_Base_Init>
 8000ece:	42a8      	cmp	r0, r5
 8000ed0:	d000      	beq.n	8000ed4 <main+0x64>
 8000ed2:	e7fe      	b.n	8000ed2 <main+0x62>
  sClockSourceConfig.ClockSource = TIM_CLOCKSOURCE_INTERNAL;
 8000ed4:	2380      	movs	r3, #128	; 0x80
  if (HAL_TIM_ConfigClockSource(&htim3, &sClockSourceConfig) != HAL_OK)
 8000ed6:	a903      	add	r1, sp, #12
  sClockSourceConfig.ClockSource = TIM_CLOCKSOURCE_INTERNAL;
 8000ed8:	015b      	lsls	r3, r3, #5
  if (HAL_TIM_ConfigClockSource(&htim3, &sClockSourceConfig) != HAL_OK)
 8000eda:	0020      	movs	r0, r4
  sClockSourceConfig.ClockSource = TIM_CLOCKSOURCE_INTERNAL;
 8000edc:	9303      	str	r3, [sp, #12]
  if (HAL_TIM_ConfigClockSource(&htim3, &sClockSourceConfig) != HAL_OK)
 8000ede:	f7ff febb 	bl	8000c58 <HAL_TIM_ConfigClockSource>
 8000ee2:	2800      	cmp	r0, #0
 8000ee4:	d000      	beq.n	8000ee8 <main+0x78>
 8000ee6:	e7fe      	b.n	8000ee6 <main+0x76>
  sMasterConfig.MasterOutputTrigger = TIM_TRGO_RESET;
 8000ee8:	9001      	str	r0, [sp, #4]
  sMasterConfig.MasterSlaveMode = TIM_MASTERSLAVEMODE_DISABLE;
 8000eea:	9002      	str	r0, [sp, #8]
  if (HAL_TIMEx_MasterConfigSynchronization(&htim3, &sMasterConfig) != HAL_OK)
 8000eec:	a901      	add	r1, sp, #4
 8000eee:	0020      	movs	r0, r4
 8000ef0:	f7ff ff66 	bl	8000dc0 <HAL_TIMEx_MasterConfigSynchronization>
 8000ef4:	1e01      	subs	r1, r0, #0
 8000ef6:	d000      	beq.n	8000efa <main+0x8a>
 8000ef8:	e7fe      	b.n	8000ef8 <main+0x88>
  HAL_NVIC_SetPriority(TIM3_IRQn, 0, 0);
 8000efa:	0002      	movs	r2, r0
 8000efc:	0030      	movs	r0, r6
 8000efe:	f7ff f9bf 	bl	8000280 <HAL_NVIC_SetPriority>
  HAL_NVIC_EnableIRQ(TIM3_IRQn);
 8000f02:	0030      	movs	r0, r6
 8000f04:	f7ff f9ec 	bl	80002e0 <HAL_NVIC_EnableIRQ>
  HAL_TIM_Base_Start_IT(&htim3);
 8000f08:	0020      	movs	r0, r4
 8000f0a:	f7ff fd8b 	bl	8000a24 <HAL_TIM_Base_Start_IT>
 8000f0e:	e7fe      	b.n	8000f0e <main+0x9e>
 8000f10:	40021000 	.word	0x40021000
 8000f14:	20000024 	.word	0x20000024
 8000f18:	40000400 	.word	0x40000400
 8000f1c:	00008c9f 	.word	0x00008c9f
 8000f20:	00000535 	.word	0x00000535

08000f24 <HAL_TIM_PeriodElapsedCallback>:
void TIM3_UP_IRQHandler(void) {
  HAL_TIM_IRQHandler(&htim3);
}

void HAL_TIM_PeriodElapsedCallback(TIM_HandleTypeDef *htim) {
  if(htim->Instance == TIM3)
 8000f24:	4b05      	ldr	r3, [pc, #20]	; (8000f3c <HAL_TIM_PeriodElapsedCallback+0x18>)
 8000f26:	6802      	ldr	r2, [r0, #0]
void HAL_TIM_PeriodElapsedCallback(TIM_HandleTypeDef *htim) {
 8000f28:	b510      	push	{r4, lr}
  if(htim->Instance == TIM3)
 8000f2a:	429a      	cmp	r2, r3
 8000f2c:	d104      	bne.n	8000f38 <HAL_TIM_PeriodElapsedCallback+0x14>
	  HAL_GPIO_TogglePin(GPIOA, GPIO_PIN_4);
 8000f2e:	2090      	movs	r0, #144	; 0x90
 8000f30:	2110      	movs	r1, #16
 8000f32:	05c0      	lsls	r0, r0, #23
 8000f34:	f7ff fac2 	bl	80004bc <HAL_GPIO_TogglePin>
}
 8000f38:	bd10      	pop	{r4, pc}
 8000f3a:	46c0      	nop			; (mov r8, r8)
 8000f3c:	40000400 	.word	0x40000400

08000f40 <HAL_MspInit>:
/* USER CODE END 0 */
/**
  * Initializes the Global MSP.
  */
void HAL_MspInit(void)
{
 8000f40:	b507      	push	{r0, r1, r2, lr}
  /* USER CODE BEGIN MspInit 0 */

  /* USER CODE END MspInit 0 */

  __HAL_RCC_SYSCFG_CLK_ENABLE();
 8000f42:	2001      	movs	r0, #1
 8000f44:	4a0c      	ldr	r2, [pc, #48]	; (8000f78 <HAL_MspInit+0x38>)
 8000f46:	6991      	ldr	r1, [r2, #24]
 8000f48:	4301      	orrs	r1, r0
 8000f4a:	6191      	str	r1, [r2, #24]
 8000f4c:	6993      	ldr	r3, [r2, #24]

  /* System interrupt init*/
  /* SVC_IRQn interrupt configuration */
  HAL_NVIC_SetPriority(SVC_IRQn, 0, 0);
 8000f4e:	2200      	movs	r2, #0
  __HAL_RCC_SYSCFG_CLK_ENABLE();
 8000f50:	4003      	ands	r3, r0
  HAL_NVIC_SetPriority(SVC_IRQn, 0, 0);
 8000f52:	0011      	movs	r1, r2
  __HAL_RCC_SYSCFG_CLK_ENABLE();
 8000f54:	9301      	str	r3, [sp, #4]
  HAL_NVIC_SetPriority(SVC_IRQn, 0, 0);
 8000f56:	3806      	subs	r0, #6
  __HAL_RCC_SYSCFG_CLK_ENABLE();
 8000f58:	9b01      	ldr	r3, [sp, #4]
  HAL_NVIC_SetPriority(SVC_IRQn, 0, 0);
 8000f5a:	f7ff f991 	bl	8000280 <HAL_NVIC_SetPriority>
  /* PendSV_IRQn interrupt configuration */
  HAL_NVIC_SetPriority(PendSV_IRQn, 0, 0);
 8000f5e:	2200      	movs	r2, #0
 8000f60:	2002      	movs	r0, #2
 8000f62:	0011      	movs	r1, r2
 8000f64:	4240      	negs	r0, r0
 8000f66:	f7ff f98b 	bl	8000280 <HAL_NVIC_SetPriority>
  /* SysTick_IRQn interrupt configuration */
  HAL_NVIC_SetPriority(SysTick_IRQn, 0, 0);
 8000f6a:	2200      	movs	r2, #0
 8000f6c:	2001      	movs	r0, #1
 8000f6e:	0011      	movs	r1, r2
 8000f70:	4240      	negs	r0, r0
 8000f72:	f7ff f985 	bl	8000280 <HAL_NVIC_SetPriority>

  /* USER CODE BEGIN MspInit 1 */

  /* USER CODE END MspInit 1 */
}
 8000f76:	bd07      	pop	{r0, r1, r2, pc}
 8000f78:	40021000 	.word	0x40021000

08000f7c <HAL_TIM_Base_MspInit>:

void HAL_TIM_Base_MspInit(TIM_HandleTypeDef* htim_base)
{
 8000f7c:	b507      	push	{r0, r1, r2, lr}

  if(htim_base->Instance==TIM3)
 8000f7e:	4b0b      	ldr	r3, [pc, #44]	; (8000fac <HAL_TIM_Base_MspInit+0x30>)
 8000f80:	6802      	ldr	r2, [r0, #0]
 8000f82:	429a      	cmp	r2, r3
 8000f84:	d110      	bne.n	8000fa8 <HAL_TIM_Base_MspInit+0x2c>
  {
  /* USER CODE BEGIN TIM3_MspInit 0 */

  /* USER CODE END TIM3_MspInit 0 */
    /* Peripheral clock enable */
    __HAL_RCC_TIM3_CLK_ENABLE();
 8000f86:	2002      	movs	r0, #2
 8000f88:	4a09      	ldr	r2, [pc, #36]	; (8000fb0 <HAL_TIM_Base_MspInit+0x34>)
 8000f8a:	69d1      	ldr	r1, [r2, #28]
 8000f8c:	4301      	orrs	r1, r0
 8000f8e:	61d1      	str	r1, [r2, #28]
 8000f90:	69d3      	ldr	r3, [r2, #28]
    /* TIM3 interrupt Init */
    HAL_NVIC_SetPriority(TIM3_IRQn, 0, 0);
 8000f92:	2200      	movs	r2, #0
    __HAL_RCC_TIM3_CLK_ENABLE();
 8000f94:	4003      	ands	r3, r0
 8000f96:	9301      	str	r3, [sp, #4]
    HAL_NVIC_SetPriority(TIM3_IRQn, 0, 0);
 8000f98:	300e      	adds	r0, #14
 8000f9a:	0011      	movs	r1, r2
    __HAL_RCC_TIM3_CLK_ENABLE();
 8000f9c:	9b01      	ldr	r3, [sp, #4]
    HAL_NVIC_SetPriority(TIM3_IRQn, 0, 0);
 8000f9e:	f7ff f96f 	bl	8000280 <HAL_NVIC_SetPriority>
    HAL_NVIC_EnableIRQ(TIM3_IRQn);
 8000fa2:	2010      	movs	r0, #16
 8000fa4:	f7ff f99c 	bl	80002e0 <HAL_NVIC_EnableIRQ>
  /* USER CODE BEGIN TIM3_MspInit 1 */

  /* USER CODE END TIM3_MspInit 1 */
  }

}
 8000fa8:	bd07      	pop	{r0, r1, r2, pc}
 8000faa:	46c0      	nop			; (mov r8, r8)
 8000fac:	40000400 	.word	0x40000400
 8000fb0:	40021000 	.word	0x40021000

08000fb4 <NMI_Handler>:
 8000fb4:	4770      	bx	lr

08000fb6 <HardFault_Handler>:

/**
* @brief This function handles Hard fault interrupt.
*/
void HardFault_Handler(void)
{
 8000fb6:	e7fe      	b.n	8000fb6 <HardFault_Handler>

08000fb8 <SVC_Handler>:
 8000fb8:	4770      	bx	lr

08000fba <PendSV_Handler>:

  /* USER CODE END PendSV_IRQn 0 */
  /* USER CODE BEGIN PendSV_IRQn 1 */

  /* USER CODE END PendSV_IRQn 1 */
}
 8000fba:	4770      	bx	lr

08000fbc <SysTick_Handler>:

/**
* @brief This function handles System tick timer.
*/
void SysTick_Handler(void)
{
 8000fbc:	b510      	push	{r4, lr}
  /* USER CODE BEGIN SysTick_IRQn 0 */

  /* USER CODE END SysTick_IRQn 0 */
  HAL_IncTick();
 8000fbe:	f7ff f951 	bl	8000264 <HAL_IncTick>
  HAL_SYSTICK_IRQHandler();
 8000fc2:	f7ff f9c0 	bl	8000346 <HAL_SYSTICK_IRQHandler>
  /* USER CODE BEGIN SysTick_IRQn 1 */

  /* USER CODE END SysTick_IRQn 1 */
}
 8000fc6:	bd10      	pop	{r4, pc}

08000fc8 <TIM3_IRQHandler>:

/**
* @brief This function handles TIM3 global interrupt.
*/
void TIM3_IRQHandler(void)
{
 8000fc8:	b510      	push	{r4, lr}
  /* USER CODE BEGIN TIM3_IRQn 0 */

  /* USER CODE END TIM3_IRQn 0 */
  HAL_TIM_IRQHandler(&htim3);
 8000fca:	4802      	ldr	r0, [pc, #8]	; (8000fd4 <TIM3_IRQHandler+0xc>)
 8000fcc:	f7ff fd38 	bl	8000a40 <HAL_TIM_IRQHandler>
  /* USER CODE BEGIN TIM3_IRQn 1 */

  /* USER CODE END TIM3_IRQn 1 */
}
 8000fd0:	bd10      	pop	{r4, pc}
 8000fd2:	46c0      	nop			; (mov r8, r8)
 8000fd4:	20000024 	.word	0x20000024

08000fd8 <SystemInit>:
  */
void SystemInit(void)
{
  /* Reset the RCC clock configuration to the default reset state ------------*/
  /* Set HSION bit */
  RCC->CR |= (uint32_t)0x00000001U;
 8000fd8:	2101      	movs	r1, #1
 8000fda:	4b11      	ldr	r3, [pc, #68]	; (8001020 <SystemInit+0x48>)
#if defined (STM32F051x8) || defined (STM32F058x8)
  /* Reset SW[1:0], HPRE[3:0], PPRE[2:0], ADCPRE and MCOSEL[2:0] bits */
  RCC->CFGR &= (uint32_t)0xF8FFB80CU;
#else
  /* Reset SW[1:0], HPRE[3:0], PPRE[2:0], ADCPRE, MCOSEL[2:0], MCOPRE[2:0] and PLLNODIV bits */
  RCC->CFGR &= (uint32_t)0x08FFB80CU;
 8000fdc:	4811      	ldr	r0, [pc, #68]	; (8001024 <SystemInit+0x4c>)
  RCC->CR |= (uint32_t)0x00000001U;
 8000fde:	681a      	ldr	r2, [r3, #0]
 8000fe0:	430a      	orrs	r2, r1
 8000fe2:	601a      	str	r2, [r3, #0]
  RCC->CFGR &= (uint32_t)0x08FFB80CU;
 8000fe4:	685a      	ldr	r2, [r3, #4]
 8000fe6:	4002      	ands	r2, r0
 8000fe8:	605a      	str	r2, [r3, #4]
#endif /* STM32F051x8 or STM32F058x8 */
  
  /* Reset HSEON, CSSON and PLLON bits */
  RCC->CR &= (uint32_t)0xFEF6FFFFU;
 8000fea:	681a      	ldr	r2, [r3, #0]
 8000fec:	480e      	ldr	r0, [pc, #56]	; (8001028 <SystemInit+0x50>)
 8000fee:	4002      	ands	r2, r0
 8000ff0:	601a      	str	r2, [r3, #0]

  /* Reset HSEBYP bit */
  RCC->CR &= (uint32_t)0xFFFBFFFFU;
 8000ff2:	681a      	ldr	r2, [r3, #0]
 8000ff4:	480d      	ldr	r0, [pc, #52]	; (800102c <SystemInit+0x54>)
 8000ff6:	4002      	ands	r2, r0
 8000ff8:	601a      	str	r2, [r3, #0]

  /* Reset PLLSRC, PLLXTPRE and PLLMUL[3:0] bits */
  RCC->CFGR &= (uint32_t)0xFFC0FFFFU;
 8000ffa:	685a      	ldr	r2, [r3, #4]
 8000ffc:	480c      	ldr	r0, [pc, #48]	; (8001030 <SystemInit+0x58>)
 8000ffe:	4002      	ands	r2, r0

  /* Reset PREDIV[3:0] bits */
  RCC->CFGR2 &= (uint32_t)0xFFFFFFF0U;
 8001000:	200f      	movs	r0, #15
  RCC->CFGR &= (uint32_t)0xFFC0FFFFU;
 8001002:	605a      	str	r2, [r3, #4]
  RCC->CFGR2 &= (uint32_t)0xFFFFFFF0U;
 8001004:	6ada      	ldr	r2, [r3, #44]	; 0x2c
 8001006:	4382      	bics	r2, r0
 8001008:	62da      	str	r2, [r3, #44]	; 0x2c
#elif defined (STM32F091xC) || defined (STM32F098xx)
  /* Reset USART3SW[1:0], USART2SW[1:0], USART1SW[1:0], I2C1SW, CECSW and ADCSW bits */
  RCC->CFGR3 &= (uint32_t)0xFFF0FEACU;
#elif defined (STM32F030x6) || defined (STM32F030x8) || defined (STM32F031x6) || defined (STM32F038xx) || defined (STM32F030xC)
  /* Reset USART1SW[1:0], I2C1SW and ADCSW bits */
  RCC->CFGR3 &= (uint32_t)0xFFFFFEECU;
 800100a:	6b1a      	ldr	r2, [r3, #48]	; 0x30
 800100c:	4809      	ldr	r0, [pc, #36]	; (8001034 <SystemInit+0x5c>)
 800100e:	4002      	ands	r2, r0
 8001010:	631a      	str	r2, [r3, #48]	; 0x30
#else
 #warning "No target selected"
#endif

  /* Reset HSI14 bit */
  RCC->CR2 &= (uint32_t)0xFFFFFFFEU;
 8001012:	6b5a      	ldr	r2, [r3, #52]	; 0x34
 8001014:	438a      	bics	r2, r1
 8001016:	635a      	str	r2, [r3, #52]	; 0x34

  /* Disable all interrupts */
  RCC->CIR = 0x00000000U;
 8001018:	2200      	movs	r2, #0
 800101a:	609a      	str	r2, [r3, #8]

}
 800101c:	4770      	bx	lr
 800101e:	46c0      	nop			; (mov r8, r8)
 8001020:	40021000 	.word	0x40021000
 8001024:	08ffb80c 	.word	0x08ffb80c
 8001028:	fef6ffff 	.word	0xfef6ffff
 800102c:	fffbffff 	.word	0xfffbffff
 8001030:	ffc0ffff 	.word	0xffc0ffff
 8001034:	fffffeec 	.word	0xfffffeec

08001038 <Reset_Handler>:

  .section .text.Reset_Handler
  .weak Reset_Handler
  .type Reset_Handler, %function
Reset_Handler:
  ldr   r0, =_estack
 8001038:	480d      	ldr	r0, [pc, #52]	; (8001070 <LoopForever+0x2>)
  mov   sp, r0          /* set stack pointer */
 800103a:	4685      	mov	sp, r0

/* Copy the data segment initializers from flash to SRAM */
  movs r1, #0
 800103c:	2100      	movs	r1, #0
  b LoopCopyDataInit
 800103e:	e003      	b.n	8001048 <LoopCopyDataInit>

08001040 <CopyDataInit>:

CopyDataInit:
  ldr r3, =_sidata
 8001040:	4b0c      	ldr	r3, [pc, #48]	; (8001074 <LoopForever+0x6>)
  ldr r3, [r3, r1]
 8001042:	585b      	ldr	r3, [r3, r1]
  str r3, [r0, r1]
 8001044:	5043      	str	r3, [r0, r1]
  adds r1, r1, #4
 8001046:	3104      	adds	r1, #4

08001048 <LoopCopyDataInit>:

LoopCopyDataInit:
  ldr r0, =_sdata
 8001048:	480b      	ldr	r0, [pc, #44]	; (8001078 <LoopForever+0xa>)
  ldr r3, =_edata
 800104a:	4b0c      	ldr	r3, [pc, #48]	; (800107c <LoopForever+0xe>)
  adds r2, r0, r1
 800104c:	1842      	adds	r2, r0, r1
  cmp r2, r3
 800104e:	429a      	cmp	r2, r3
  bcc CopyDataInit
 8001050:	d3f6      	bcc.n	8001040 <CopyDataInit>
  ldr r2, =_sbss
 8001052:	4a0b      	ldr	r2, [pc, #44]	; (8001080 <LoopForever+0x12>)
  b LoopFillZerobss
 8001054:	e002      	b.n	800105c <LoopFillZerobss>

08001056 <FillZerobss>:
/* Zero fill the bss segment. */
FillZerobss:
  movs r3, #0
 8001056:	2300      	movs	r3, #0
  str  r3, [r2]
 8001058:	6013      	str	r3, [r2, #0]
  adds r2, r2, #4
 800105a:	3204      	adds	r2, #4

0800105c <LoopFillZerobss>:


LoopFillZerobss:
  ldr r3, = _ebss
 800105c:	4b09      	ldr	r3, [pc, #36]	; (8001084 <LoopForever+0x16>)
  cmp r2, r3
 800105e:	429a      	cmp	r2, r3
  bcc FillZerobss
 8001060:	d3f9      	bcc.n	8001056 <FillZerobss>

/* Call the clock system intitialization function.*/
  bl  SystemInit
 8001062:	f7ff ffb9 	bl	8000fd8 <SystemInit>
/* Call static constructors */
  bl __libc_init_array
 8001066:	f000 f811 	bl	800108c <__libc_init_array>
/* Call the application's entry point.*/
  bl main
 800106a:	f7ff ff01 	bl	8000e70 <main>

0800106e <LoopForever>:

LoopForever:
    b LoopForever
 800106e:	e7fe      	b.n	800106e <LoopForever>
  ldr   r0, =_estack
 8001070:	20001000 	.word	0x20001000
  ldr r3, =_sidata
 8001074:	08001138 	.word	0x08001138
  ldr r0, =_sdata
 8001078:	20000000 	.word	0x20000000
  ldr r3, =_edata
 800107c:	20000004 	.word	0x20000004
  ldr r2, =_sbss
 8001080:	20000004 	.word	0x20000004
  ldr r3, = _ebss
 8001084:	20000064 	.word	0x20000064

08001088 <ADC1_IRQHandler>:
 * @retval : None
*/
    .section .text.Default_Handler,"ax",%progbits
Default_Handler:
Infinite_Loop:
  b Infinite_Loop
 8001088:	e7fe      	b.n	8001088 <ADC1_IRQHandler>
	...

0800108c <__libc_init_array>:
 800108c:	b570      	push	{r4, r5, r6, lr}
 800108e:	2600      	movs	r6, #0
 8001090:	4d0c      	ldr	r5, [pc, #48]	; (80010c4 <__libc_init_array+0x38>)
 8001092:	4c0d      	ldr	r4, [pc, #52]	; (80010c8 <__libc_init_array+0x3c>)
 8001094:	1b64      	subs	r4, r4, r5
 8001096:	10a4      	asrs	r4, r4, #2
 8001098:	42a6      	cmp	r6, r4
 800109a:	d109      	bne.n	80010b0 <__libc_init_array+0x24>
 800109c:	2600      	movs	r6, #0
 800109e:	f000 f823 	bl	80010e8 <_init>
 80010a2:	4d0a      	ldr	r5, [pc, #40]	; (80010cc <__libc_init_array+0x40>)
 80010a4:	4c0a      	ldr	r4, [pc, #40]	; (80010d0 <__libc_init_array+0x44>)
 80010a6:	1b64      	subs	r4, r4, r5
 80010a8:	10a4      	asrs	r4, r4, #2
 80010aa:	42a6      	cmp	r6, r4
 80010ac:	d105      	bne.n	80010ba <__libc_init_array+0x2e>
 80010ae:	bd70      	pop	{r4, r5, r6, pc}
 80010b0:	00b3      	lsls	r3, r6, #2
 80010b2:	58eb      	ldr	r3, [r5, r3]
 80010b4:	4798      	blx	r3
 80010b6:	3601      	adds	r6, #1
 80010b8:	e7ee      	b.n	8001098 <__libc_init_array+0xc>
 80010ba:	00b3      	lsls	r3, r6, #2
 80010bc:	58eb      	ldr	r3, [r5, r3]
 80010be:	4798      	blx	r3
 80010c0:	3601      	adds	r6, #1
 80010c2:	e7f2      	b.n	80010aa <__libc_init_array+0x1e>
 80010c4:	08001130 	.word	0x08001130
 80010c8:	08001130 	.word	0x08001130
 80010cc:	08001130 	.word	0x08001130
 80010d0:	08001134 	.word	0x08001134

080010d4 <memcpy>:
 80010d4:	2300      	movs	r3, #0
 80010d6:	b510      	push	{r4, lr}
 80010d8:	429a      	cmp	r2, r3
 80010da:	d100      	bne.n	80010de <memcpy+0xa>
 80010dc:	bd10      	pop	{r4, pc}
 80010de:	5ccc      	ldrb	r4, [r1, r3]
 80010e0:	54c4      	strb	r4, [r0, r3]
 80010e2:	3301      	adds	r3, #1
 80010e4:	e7f8      	b.n	80010d8 <memcpy+0x4>
	...

080010e8 <_init>:
 80010e8:	b5f8      	push	{r3, r4, r5, r6, r7, lr}
 80010ea:	46c0      	nop			; (mov r8, r8)
 80010ec:	bcf8      	pop	{r3, r4, r5, r6, r7}
 80010ee:	bc08      	pop	{r3}
 80010f0:	469e      	mov	lr, r3
 80010f2:	4770      	bx	lr

080010f4 <_fini>:
 80010f4:	b5f8      	push	{r3, r4, r5, r6, r7, lr}
 80010f6:	46c0      	nop			; (mov r8, r8)
 80010f8:	bcf8      	pop	{r3, r4, r5, r6, r7}
 80010fa:	bc08      	pop	{r3}
 80010fc:	469e      	mov	lr, r3
 80010fe:	4770      	bx	lr
